
test/test.out:     file format elf32-msp430
test/test.out
architecture: MSP430X, flags 0x00000112:
EXEC_P, HAS_SYMS, D_PAGED
start address 0x00004010

Program Header:
    LOAD off    0x00000000 vaddr 0x00001b0c paddr 0x00001b0c align 2**2
         filesz 0x000000f4 memsz 0x0000010c flags rw-
    LOAD off    0x000000f4 vaddr 0x00004000 paddr 0x00004000 align 2**2
         filesz 0x0000000c memsz 0x0000000c flags rw-
    LOAD off    0x00000100 vaddr 0x00001c00 paddr 0x0000400c align 2**2
         filesz 0x00000002 memsz 0x00000002 flags rw-
    LOAD off    0x00000104 vaddr 0x00010000 paddr 0x0000400e align 2**2
         filesz 0x00000002 memsz 0x00000002 flags rw-
    LOAD off    0x00000108 vaddr 0x00004010 paddr 0x00004010 align 2**2
         filesz 0x00000394 memsz 0x00000394 flags r-x
    LOAD off    0x0000049e vaddr 0x0000fffe paddr 0x0000fffe align 2**2
         filesz 0x00000002 memsz 0x00000002 flags r--

Sections:
Idx Name          Size      VMA       LMA       File off  Algn
  0 __reset_vector 00000002  0000fffe  0000fffe  0000049e  2**0
                  CONTENTS, ALLOC, LOAD, READONLY, DATA
  1 .lower.rodata 00000000  00004000  00004000  000004a0  2**0
                  CONTENTS
  2 .rodata       00000000  00004000  00004000  000004a0  2**0
                  CONTENTS, ALLOC, LOAD, DATA
  3 .rodata2      0000000c  00004000  00004000  000000f4  2**2
                  CONTENTS, ALLOC, LOAD, DATA
  4 .persistent   00000000  0000400c  0000400c  000004a0  2**0
                  CONTENTS
  5 .lower.data   00000000  00001c00  00001c00  000004a0  2**0
                  CONTENTS
  6 .data         00000002  00001c00  0000400c  00000100  2**1
                  CONTENTS, ALLOC, LOAD, DATA
  7 .upper.data   00000002  00010000  0000400e  00000104  2**0
                  CONTENTS, ALLOC, LOAD, DATA
  8 .lower.bss    00000000  00001c02  00001c02  000004a0  2**0
                  CONTENTS
  9 .bss          00000012  00001c02  00001c02  000000f6  2**1
                  ALLOC
 10 .noinit       00000000  00001c14  00001c14  000004a0  2**0
                  CONTENTS
 11 .upper.bss    00000000  00010002  00010002  000004a0  2**0
                  CONTENTS
 12 .heap         00000004  00001c14  00001c14  000000f6  2**0
                  ALLOC
 13 .lower.text   00000000  00004010  00004010  000004a0  2**0
                  CONTENTS
 14 .text         00000394  00004010  00004010  00000108  2**1
                  CONTENTS, ALLOC, LOAD, READONLY, CODE
 15 .upper.text   00000000  00010002  00010002  000004a0  2**0
                  CONTENTS
 16 .MSP430.attributes 00000017  00000000  00000000  000004a0  2**0
                  CONTENTS, READONLY
 17 .comment      00000040  00000000  00000000  000004b7  2**0
                  CONTENTS, READONLY
SYMBOL TABLE:
0000fffe l    d  __reset_vector	00000000 __reset_vector
00004000 l    d  .lower.rodata	00000000 .lower.rodata
00004000 l    d  .rodata	00000000 .rodata
00004000 l    d  .rodata2	00000000 .rodata2
0000400c l    d  .persistent	00000000 .persistent
00001c00 l    d  .lower.data	00000000 .lower.data
00001c00 l    d  .data	00000000 .data
00010000 l    d  .upper.data	00000000 .upper.data
00001c02 l    d  .lower.bss	00000000 .lower.bss
00001c02 l    d  .bss	00000000 .bss
00001c14 l    d  .noinit	00000000 .noinit
00010002 l    d  .upper.bss	00000000 .upper.bss
00001c14 l    d  .heap	00000000 .heap
00004010 l    d  .lower.text	00000000 .lower.text
00004010 l    d  .text	00000000 .text
00010002 l    d  .upper.text	00000000 .upper.text
00000000 l    d  .MSP430.attributes	00000000 .MSP430.attributes
00000000 l    d  .comment	00000000 .comment
00000000 l    df *ABS*	00000000 /home/d/Downloads/msp430-gcc-6.4.0.32_linux64/bin/../lib/gcc/msp430-elf/6.4.0/../../../../msp430-elf/lib/crt0.o
0000fffe l       __reset_vector	00000000 __msp430_resetvec_hook
0000406a l       .text	00000000 _msp430_run_array
00004078 l       .text	00000000 _msp430_run_done
00000000 l    df *ABS*	00000000 /home/d/Downloads/msp430-gcc-6.4.0.32_linux64/bin/../lib/gcc/msp430-elf/6.4.0/crtbegin.o
00004004 l     O .rodata2	00000000 __CTOR_LIST__
00004008 l     O .rodata2	00000000 __DTOR_LIST__
00004000 l     O .rodata2	00000000 __EH_FRAME_BEGIN__
00001c00 l     O .data	00000000 __JCR_LIST__
000043a4 l     O .text	00000000 __TMC_LIST__
0000407a l     F .text	00000000 deregister_tm_clones
00004098 l     F .text	00000000 register_tm_clones
000040c4 l     F .text	00000000 __do_global_dtors_aux
00001c02 l     O .bss	00000000 completed.3094
00001c04 l     O .bss	00000000 dtor_idx.3096
0000410e l     F .text	00000000 frame_dummy
00001c06 l     O .bss	00000000 object.3109
00000000 l    df *ABS*	00000000 /home/d/Downloads/msp430-gcc-6.4.0.32_linux64/bin/../lib/gcc/msp430-elf/6.4.0/crtend.o
00004006 l     O .rodata2	00000000 __CTOR_END__
00004000 l     O .rodata2	00000000 __FRAME_END__
00001c00 l     O .data	00000000 __JCR_END__
00004370 l     F .text	00000000 __do_global_ctors_aux
00000000 l    df *ABS*	00000000 crt_bss.o
00000000 l    df *ABS*	00000000 crt_movedata.o
00000000 l    df *ABS*	00000000 crt_main.o
00000000 l    df *ABS*	00000000 crt_callexit.o
00000000 l    df *ABS*	00000000 test.c
0000413a l     F .text	000000e8 testSimple
00000000 l    df *ABS*	00000000 slli.o
00000000 l    df *ABS*	00000000 srai.o
00000000 l    df *ABS*	00000000 lib2hw_mul_f5.o
00000130 l       *ABS*	00000000 MPY_OP1
00000132 l       *ABS*	00000000 MPY_OP1_S
00000134 l       *ABS*	00000000 MAC_OP1
00000138 l       *ABS*	00000000 MPY_OP2
00000138 l       *ABS*	00000000 MAC_OP2
0000013a l       *ABS*	00000000 RESULT_LO
0000013c l       *ABS*	00000000 RESULT_HI
00000000 l    df *ABS*	00000000 ciosyscalls.o
00000000 l    df *ABS*	00000000 lib_a-memmove.o
00000000 l    df *ABS*	00000000 lib_a-memset.o
00000000 l    df *ABS*	00000000 /home/d/Downloads/msp430-gcc-6.4.0.32_linux64/bin/../lib/gcc/msp430-elf/6.4.0/../../../../msp430-elf/lib/crtn.o
00000000 l    df *ABS*	00000000 
00000000 l       *UND*	00000000 __sf_fake_stderr
00004010 l       .text	00000000 _start
00000000 l       *UND*	00000000 __sf_fake_stdin
00000000 l       *UND*	00000000 __sf_fake_stdout
0000426a g       .text	00000000 .hidden __mspabi_slll_9
0000425a g       .text	00000000 .hidden __mspabi_slll_13
000042ae g       .text	00000000 .hidden __mspabi_srai_6
000042b8 g       .text	00000000 .hidden __mspabi_srai_1
000042da g       .text	00000000 .hidden __mspabi_sral_10
000042ca g       .text	00000000 .hidden __mspabi_sral_14
00004234 g       .text	00000000 .hidden __mspabi_slli_9
00004326 g     F .text	0000003c memmove
0000422e g       .text	00000000 .hidden __mspabi_slli_12
00004040 g     F .text	00000004 __crt0_call_exit
00010002 g       .upper.data	00000000 __high_dataend
000042de g       .text	00000000 .hidden __mspabi_sral_9
000042ea g       .text	00000000 .hidden __mspabi_sral_6
000042fe g       .text	00000000 .hidden __mspabi_sral_1
0000429c g       .text	00000000 .hidden __mspabi_srai_15
000043a4 g     O .text	00000000 .hidden __TMC_END__
0000400a g     O .rodata2	00000000 .hidden __DTOR_END__
00004000 g       .rodata	00000000 __fini_array_end
000042b6 g       .text	00000000 .hidden __mspabi_srai_2
000042b4 g       .text	00000000 .hidden __mspabi_srai_3
00004010 g     F .text	00000004 __crt0_start
00001c18 g       .heap	00000000 __HeapLimit
00004262 g       .text	00000000 .hidden __mspabi_slll_11
00004252 g       .text	00000000 .hidden __mspabi_slll_15
00001c18 g       .heap	00000000 __heap_end__
0000422a g       .text	00000000 .hidden __mspabi_slli_14
0000423e g       .text	00000000 .hidden __mspabi_slli_4
00004014 g     F .text	0000000e __crt0_init_bss
00000012 g       *ABS*	00000000 __bsssize
00004286 g       .text	00000000 .hidden __mspabi_slll_2
000042a6 g       .text	00000000 .hidden __mspabi_srai_10
00004310 g     F .text	00000014 __mulhi2_f5
00004036 g     F .text	0000000a __crt0_call_init_then_main
0000424c g       .text	00000000 .hidden __mspabi_slli
00010002 g       .upper.bss	00000000 __high_bssend
0000427a g       .text	00000000 .hidden __mspabi_slll_5
00004230 g       .text	00000000 .hidden __mspabi_slli_11
00004240 g       .text	00000000 .hidden __mspabi_slli_3
00004310 g     F .text	00000000 __mspabi_mpyi_f5hw
00000000  w      *UND*	00000000 __deregister_frame_info
000042d6 g       .text	00000000 .hidden __mspabi_sral_11
000042c6 g       .text	00000000 .hidden __mspabi_sral_15
000042ac g       .text	00000000 .hidden __mspabi_srai_7
00000000  w      *UND*	00000000 _ITM_registerTMCloneTable
00004242 g       .text	00000000 .hidden __mspabi_slli_2
000042f2 g       .text	00000000 .hidden __mspabi_sral_4
00004276 g       .text	00000000 .hidden __mspabi_slll_6
0000427e g       .text	00000000 .hidden __mspabi_slll_4
0000426e g       .text	00000000 .hidden __mspabi_slll_8
0000405c g     F .text	00000000 _msp430_run_fini_array
0000423a g       .text	00000000 .hidden __mspabi_slli_6
000042c0 g       .text	00000000 .hidden __mspabi_srai
00004310 g     F .text	00000000 __mspabi_mpyi
000042a2 g       .text	00000000 .hidden __mspabi_srai_12
00000002 g       *ABS*	00000000 __romdatacopysize
00004256 g       .text	00000000 .hidden __mspabi_slll_14
000042e6 g       .text	00000000 .hidden __mspabi_sral_7
000042aa g       .text	00000000 .hidden __mspabi_srai_8
000042fa g       .text	00000000 .hidden __mspabi_sral_2
00004272 g       .text	00000000 .hidden __mspabi_slll_7
00000000  w      *UND*	00000000 _ITM_deregisterTMCloneTable
00004000 g       .rodata	00000000 __fini_array_start
00000000 g       *ABS*	00000000 __rom_highdatacopysize
00004388 g       .text	00000000 __msp430_init
0000435e g     F .text	00000014 memset
0000425e g       .text	00000000 .hidden __mspabi_slll_12
00004220 g     F .text	00000008 main
000042a8 g       .text	00000000 .hidden __mspabi_srai_9
000042a4 g       .text	00000000 .hidden __mspabi_srai_11
00004000 g       .rodata	00000000 __init_array_end
00001c14 g       .heap	00000000 __heap_start__
0000430a g       .text	00000000 .hidden __mspabi_sral
00004244 g       .text	00000000 .hidden __mspabi_slli_1
00000000 g       *ABS*	00000000 __high_bsssize
00004282 g       .text	00000000 .hidden __mspabi_slll_3
00004010 g       *ABS*	00000000 __rom_highdatastart
000043a4 g       .text	00000000 __msp430_fini_end
000042e2 g       .text	00000000 .hidden __mspabi_sral_8
000042ce g       .text	00000000 .hidden __mspabi_sral_13
0000423c g       .text	00000000 .hidden __mspabi_slli_5
0000400c g       *ABS*	00000000 __romdatastart
0000422c g       .text	00000000 .hidden __mspabi_slli_13
000042b2 g       .text	00000000 .hidden __mspabi_srai_4
00004044 g     F .text	00000000 _msp430_run_init_array
00004000 g       .rodata	00000000 __preinit_array_end
00004232 g       .text	00000000 .hidden __mspabi_slli_10
00010002 g       .upper.data	00000000 __high_datastart
0000400e g       *ABS*	00000000 __upper_data_init
00001c02 g       .lower.bss	00000000 __bssstart
0000429e g       .text	00000000 .hidden __mspabi_srai_14
00004296 g       .text	00000000 .hidden __mspabi_slll
00002c00 g       .lower.text	00000000 __stack
000042f6 g       .text	00000000 .hidden __mspabi_sral_3
00001c02 g       .data	00000000 _edata
000042d2 g       .text	00000000 .hidden __mspabi_sral_12
00001c14 g       .heap	00000000 _end
0000439a g       .text	00000000 __msp430_init_end
00004324  w    F .text	00000004 exit
00010002 g       .upper.bss	00000000 __high_bssstart
00004236 g       .text	00000000 .hidden __mspabi_slli_8
00004266 g       .text	00000000 .hidden __mspabi_slll_10
00004228 g       .text	00000000 .hidden __mspabi_slli_15
00004000 g       .rodata	00000000 __init_array_start
00004324  w    F .text	00000004 _exit
000042b0 g       .text	00000000 .hidden __mspabi_srai_5
000042a0 g       .text	00000000 .hidden __mspabi_srai_13
00001c00 g       .lower.data	00000000 __datastart
0000428a g       .text	00000000 .hidden __mspabi_slll_1
00000000  w      *UND*	00000000 _Jv_RegisterClasses
00004238 g       .text	00000000 .hidden __mspabi_slli_7
00004000 g       .rodata	00000000 __preinit_array_start
00004022 g     F .text	00000014 __crt0_movedata
00000000  w      *UND*	00000000 __register_frame_info
000042ee g       .text	00000000 .hidden __mspabi_sral_5
00004050 g     F .text	00000000 _msp430_run_preinit_array
0000439a g       .text	00000000 __msp430_fini



Disassembly of section __reset_vector:

0000fffe <__msp430_resetvec_hook>:
    fffe:	10 40       	interrupt service routine at 0x4010

Disassembly of section .rodata2:

00004000 <__EH_FRAME_BEGIN__>:
    4000:	00 00       	beq			
    4002:	00 00       	beq			

00004004 <__CTOR_LIST__>:
    4004:	ff ff       	.word	0xffff;	????

00004006 <__CTOR_END__>:
    4006:	00 00       	beq			

00004008 <__DTOR_LIST__>:
    4008:	ff ff       	.word	0xffff;	????

0000400a <__DTOR_END__>:
    400a:	00 00       	beq			

Disassembly of section .data:

00001c00 <__JCR_END__>:
    1c00:	00 00       	beq			

Disassembly of section .upper.data:

00010000 <__high_dataend-0x2>:
   10000:	01 00       	mova	@r0,	r1	;

Disassembly of section .bss:

00001c02 <completed.3094>:
    1c02:	00 00       	beq			

00001c04 <dtor_idx.3096>:
    1c04:	00 00       	beq			

00001c06 <object.3109>:
    1c06:	00 00       	beq			
    1c08:	00 00       	beq			
    1c0a:	00 00       	beq			
    1c0c:	00 00       	beq			
    1c0e:	00 00       	beq			
    1c10:	00 00       	beq			
    1c12:	00 00       	beq			

Disassembly of section .heap:

00001c14 <__heap_start__>:
    1c14:	00 00       	beq			
    1c16:	00 00       	beq			

Disassembly of section .text:

00004010 <__crt0_start>:
    4010:	31 40 00 2c 	mov	#11264,	r1	;#0x2c00

00004014 <__crt0_init_bss>:
    4014:	3c 40 02 1c 	mov	#7170,	r12	;#0x1c02

00004018 <.Loc.74.1>:
    4018:	0d 43       	clr	r13		;

0000401a <.Loc.75.1>:
    401a:	3e 40 12 00 	mov	#18,	r14	;#0x0012

0000401e <.Loc.79.1>:
    401e:	b0 12 5e 43 	call	#17246		;#0x435e

00004022 <__crt0_movedata>:
    4022:	3c 40 00 1c 	mov	#7168,	r12	;#0x1c00

00004026 <.Loc.116.1>:
    4026:	3d 40 0c 40 	mov	#16396,	r13	;#0x400c

0000402a <.Loc.119.1>:
    402a:	0d 9c       	cmp	r12,	r13	;

0000402c <.Loc.120.1>:
    402c:	04 24       	jz	$+10     	;abs 0x4036

0000402e <.Loc.122.1>:
    402e:	3e 40 02 00 	mov	#2,	r14	;

00004032 <.Loc.124.1>:
    4032:	b0 12 26 43 	call	#17190		;#0x4326

00004036 <__crt0_call_init_then_main>:
    4036:	b0 12 88 43 	call	#17288		;#0x4388

0000403a <.Loc.196.1>:
    403a:	0c 43       	clr	r12		;

0000403c <.Loc.197.1>:
    403c:	b0 12 20 42 	call	#16928		;#0x4220

00004040 <__crt0_call_exit>:
    4040:	b0 12 24 43 	call	#17188		;#0x4324

00004044 <_msp430_run_init_array>:
    4044:	34 40 00 40 	mov	#16384,	r4	;#0x4000

00004048 <.Loc.224.1>:
    4048:	35 40 00 40 	mov	#16384,	r5	;#0x4000

0000404c <.Loc.225.1>:
    404c:	26 43       	mov	#2,	r6	;r3 As==10

0000404e <.Loc.226.1>:
    404e:	0d 3c       	jmp	$+28     	;abs 0x406a

00004050 <_msp430_run_preinit_array>:
    4050:	34 40 00 40 	mov	#16384,	r4	;#0x4000

00004054 <.Loc.232.1>:
    4054:	35 40 00 40 	mov	#16384,	r5	;#0x4000

00004058 <.Loc.233.1>:
    4058:	26 43       	mov	#2,	r6	;r3 As==10

0000405a <.Loc.234.1>:
    405a:	07 3c       	jmp	$+16     	;abs 0x406a

0000405c <_msp430_run_fini_array>:
    405c:	34 40 00 40 	mov	#16384,	r4	;#0x4000

00004060 <.Loc.240.1>:
    4060:	35 40 00 40 	mov	#16384,	r5	;#0x4000

00004064 <.Loc.241.1>:
    4064:	36 40 fe ff 	mov	#65534,	r6	;#0xfffe

00004068 <.Loc.242.1>:
    4068:	00 3c       	jmp	$+2      	;abs 0x406a

0000406a <_msp430_run_array>:
    406a:	05 94       	cmp	r4,	r5	;

0000406c <.Loc.246.1>:
    406c:	05 24       	jz	$+12     	;abs 0x4078

0000406e <.Loc.247.1>:
    406e:	27 44       	mov	@r4,	r7	;

00004070 <.Loc.248.1>:
    4070:	04 56       	add	r6,	r4	;

00004072 <.Loc.249.1>:
    4072:	a7 12       	call	@r7		;

00004074 <.Loc.250.1>:
    4074:	10 40 f4 ff 	br	0xfff4		;PC rel. 0x406a

00004078 <_msp430_run_done>:
    4078:	30 41       	ret			

0000407a <deregister_tm_clones>:
    407a:	3c 40 a4 43 	mov	#17316,	r12	;#0x43a4
    407e:	3c 80 a3 43 	sub	#17315,	r12	;#0x43a3

00004080 <L0>:
    4080:	a3 43 6d 43 	mov	#2,	17261(r3);r3 As==10, 0x436d
    4084:	0d 9c       	cmp	r12,	r13	;
    4086:	07 2c       	jc	$+16     	;abs 0x4096
    4088:	3d 40 00 00 	mov	#0,	r13	;
    408c:	0d 93       	cmp	#0,	r13	;r3 As==00
    408e:	03 24       	jz	$+8      	;abs 0x4096
    4090:	3c 40 a4 43 	mov	#17316,	r12	;#0x43a4
    4094:	8d 12       	call	r13		;

00004096 <.L1>:
    4096:	30 41       	ret			

00004098 <register_tm_clones>:
    4098:	3d 40 a4 43 	mov	#17316,	r13	;#0x43a4
    409c:	3d 80 a4 43 	sub	#17316,	r13	;#0x43a4
    40a0:	0c 4d       	mov	r13,	r12	;
    40a2:	0c 11       	rra	r12		;
    40a4:	0d 4c       	mov	r12,	r13	;
    40a6:	5d 03       	rrum	#1,	r13	;
    40a8:	4d 18 0d 11 	rpt #14 { rrax.w	r13		;
    40ac:	0d 5c       	add	r12,	r13	;
    40ae:	0d 11       	rra	r13		;
    40b0:	0d 93       	cmp	#0,	r13	;r3 As==00
    40b2:	07 24       	jz	$+16     	;abs 0x40c2
    40b4:	3e 40 00 00 	mov	#0,	r14	;
    40b8:	0e 93       	cmp	#0,	r14	;r3 As==00
    40ba:	03 24       	jz	$+8      	;abs 0x40c2
    40bc:	3c 40 a4 43 	mov	#17316,	r12	;#0x43a4
    40c0:	8e 12       	call	r14		;

000040c2 <.L6>:
    40c2:	30 41       	ret			

000040c4 <__do_global_dtors_aux>:
    40c4:	1a 15       	pushm	#2,	r10	;16-bit words
    40c6:	c2 93 02 1c 	cmp.b	#0,	&0x1c02	;r3 As==00
    40ca:	17 20       	jnz	$+48     	;abs 0x40fa
    40cc:	3a 40 0a 40 	mov	#16394,	r10	;#0x400a
    40d0:	3a 80 08 40 	sub	#16392,	r10	;#0x4008
    40d4:	0a 11       	rra	r10		;
    40d6:	3a 53       	add	#-1,	r10	;r3 As==11
    40d8:	39 40 08 40 	mov	#16392,	r9	;#0x4008

000040dc <.L16>:
    40dc:	1c 42 04 1c 	mov	&0x1c04,r12	;0x1c04
    40e0:	0c 9a       	cmp	r10,	r12	;
    40e2:	0d 28       	jnc	$+28     	;abs 0x40fe
    40e4:	b0 12 7a 40 	call	#16506		;#0x407a
    40e8:	3d 40 00 00 	mov	#0,	r13	;
    40ec:	0d 93       	cmp	#0,	r13	;r3 As==00
    40ee:	03 24       	jz	$+8      	;abs 0x40f6
    40f0:	3c 40 00 40 	mov	#16384,	r12	;#0x4000
    40f4:	8d 12       	call	r13		;

000040f6 <.L18>:
    40f6:	d2 43 02 1c 	mov.b	#1,	&0x1c02	;r3 As==01

000040fa <.L14>:
    40fa:	19 17       	popm	#2,	r10	;16-bit words
    40fc:	30 41       	ret			

000040fe <.L17>:
    40fe:	1c 53       	inc	r12		;
    4100:	82 4c 04 1c 	mov	r12,	&0x1c04	;
    4104:	0c 5c       	rla	r12		;
    4106:	0c 59       	add	r9,	r12	;
    4108:	2c 4c       	mov	@r12,	r12	;
    410a:	8c 12       	call	r12		;
    410c:	e7 3f       	jmp	$-48     	;abs 0x40dc

0000410e <frame_dummy>:
    410e:	3e 40 00 00 	mov	#0,	r14	;
    4112:	0e 93       	cmp	#0,	r14	;r3 As==00
    4114:	05 24       	jz	$+12     	;abs 0x4120
    4116:	3d 40 06 1c 	mov	#7174,	r13	;#0x1c06
    411a:	3c 40 00 40 	mov	#16384,	r12	;#0x4000
    411e:	8e 12       	call	r14		;

00004120 <.L24>:
    4120:	3c 40 00 1c 	mov	#7168,	r12	;#0x1c00
    4124:	8c 93 00 00 	cmp	#0,	0(r12)	;r3 As==00
    4128:	05 24       	jz	$+12     	;abs 0x4134
    412a:	3d 40 00 00 	mov	#0,	r13	;
    412e:	0d 93       	cmp	#0,	r13	;r3 As==00
    4130:	01 24       	jz	$+4      	;abs 0x4134
    4132:	8d 12       	call	r13		;

00004134 <.L25>:
    4134:	b0 12 98 40 	call	#16536		;#0x4098
    4138:	30 41       	ret			

0000413a <testSimple>:
    413a:	31 80 1e 00 	sub	#30,	r1	;#0x001e
    413e:	81 43 00 00 	mov	#0,	0(r1)	;r3 As==00
    4142:	81 43 02 00 	mov	#0,	2(r1)	;r3 As==00
    4146:	81 43 04 00 	mov	#0,	4(r1)	;r3 As==00
    414a:	81 43 06 00 	mov	#0,	6(r1)	;r3 As==00
    414e:	81 43 08 00 	mov	#0,	8(r1)	;r3 As==00
    4152:	81 43 0a 00 	mov	#0,	10(r1)	;r3 As==00, 0x000a
    4156:	81 43 0c 00 	mov	#0,	12(r1)	;r3 As==00, 0x000c
    415a:	81 43 0e 00 	mov	#0,	14(r1)	;r3 As==00, 0x000e
    415e:	81 43 10 00 	mov	#0,	16(r1)	;r3 As==00, 0x0010
    4162:	81 43 12 00 	mov	#0,	18(r1)	;r3 As==00, 0x0012
    4166:	91 43 00 00 	mov	#1,	0(r1)	;r3 As==01
    416a:	a1 43 02 00 	mov	#2,	2(r1)	;r3 As==10
    416e:	b1 40 03 00 	mov	#3,	4(r1)	;
    4172:	04 00 
    4174:	b1 40 05 00 	mov	#5,	6(r1)	;
    4178:	06 00 
    417a:	b1 40 06 00 	mov	#6,	8(r1)	;
    417e:	08 00 
    4180:	b1 40 07 00 	mov	#7,	10(r1)	; 0x000a
    4184:	0a 00 
    4186:	b1 42 0c 00 	mov	#8,	12(r1)	;r2 As==11, 0x000c
    418a:	b1 40 09 00 	mov	#9,	14(r1)	; 0x000e
    418e:	0e 00 
    4190:	91 43 1a 00 	mov	#1,	26(r1)	;r3 As==01, 0x001a
    4194:	a1 43 18 00 	mov	#2,	24(r1)	;r3 As==10, 0x0018
    4198:	a1 42 16 00 	mov	#4,	22(r1)	;r2 As==10, 0x0016
    419c:	81 43 1c 00 	mov	#0,	28(r1)	;r3 As==00, 0x001c
    41a0:	1c 41 1a 00 	mov	26(r1),	r12	;0x0001a
    41a4:	1d 41 18 00 	mov	24(r1),	r13	;0x00018
    41a8:	b0 12 4c 42 	call	#16972		;#0x424c
    41ac:	2c 92       	cmp	#4,	r12	;r2 As==10
    41ae:	02 20       	jnz	$+6      	;abs 0x41b4
    41b0:	91 53 1c 00 	inc	28(r1)		;

000041b4 <.L2>:
    41b4:	1c 41 16 00 	mov	22(r1),	r12	;0x00016
    41b8:	1d 41 1a 00 	mov	26(r1),	r13	;0x0001a
    41bc:	b0 12 c0 42 	call	#17088		;#0x42c0
    41c0:	2c 93       	cmp	#2,	r12	;r3 As==10
    41c2:	02 20       	jnz	$+6      	;abs 0x41c8
    41c4:	91 53 1c 00 	inc	28(r1)		;

000041c8 <.L8>:
    41c8:	91 53 1c 00 	inc	28(r1)		;
    41cc:	91 91 1a 00 	cmp	26(r1),	24(r1)	;0x0001a, 0x0018
    41d0:	18 00 
    41d2:	02 38       	jl	$+6      	;abs 0x41d8
    41d4:	91 53 1c 00 	inc	28(r1)		;

000041d8 <.L4>:
    41d8:	91 43 1a 00 	mov	#1,	26(r1)	;r3 As==01, 0x001a
    41dc:	a1 43 18 00 	mov	#2,	24(r1)	;r3 As==10, 0x0018
    41e0:	a1 42 16 00 	mov	#4,	22(r1)	;r2 As==10, 0x0016
    41e4:	1d 41 16 00 	mov	22(r1),	r13	;0x00016
    41e8:	1c 41 18 00 	mov	24(r1),	r12	;0x00018
    41ec:	b0 12 10 43 	call	#17168		;#0x4310
    41f0:	81 5c 1a 00 	add	r12,	26(r1)	; 0x001a
    41f4:	a1 92 1c 00 	cmp	#4,	28(r1)	;r2 As==10, 0x001c
    41f8:	04 20       	jnz	$+10     	;abs 0x4202
    41fa:	b1 90 09 00 	cmp	#9,	26(r1)	; 0x001a
    41fe:	1a 00 
    4200:	04 24       	jz	$+10     	;abs 0x420a

00004202 <.L5>:
    4202:	b1 40 05 00 	mov	#5,	20(r1)	; 0x0014
    4206:	14 00 
    4208:	fc 3f       	jmp	$-6      	;abs 0x4202

0000420a <.L9>:
    420a:	1c 41 02 00 	mov	2(r1),	r12	;
    420e:	81 9c 18 00 	cmp	r12,	24(r1)	; 0x0018
    4212:	02 34       	jge	$+6      	;abs 0x4218
    4214:	91 53 1c 00 	inc	28(r1)		;

00004218 <.L10>:
    4218:	03 43       	nop			
    421a:	31 50 1e 00 	add	#30,	r1	;#0x001e
    421e:	30 41       	ret			

00004220 <main>:
    4220:	b0 12 3a 41 	call	#16698		;#0x413a
    4224:	4c 43       	clr.b	r12		;
    4226:	30 41       	ret			

00004228 <__mspabi_slli_15>:
    4228:	0c 5c       	rla	r12		;

0000422a <__mspabi_slli_14>:
    422a:	0c 5c       	rla	r12		;

0000422c <__mspabi_slli_13>:
    422c:	0c 5c       	rla	r12		;

0000422e <__mspabi_slli_12>:
    422e:	0c 5c       	rla	r12		;

00004230 <__mspabi_slli_11>:
    4230:	0c 5c       	rla	r12		;

00004232 <__mspabi_slli_10>:
    4232:	0c 5c       	rla	r12		;

00004234 <__mspabi_slli_9>:
    4234:	0c 5c       	rla	r12		;

00004236 <__mspabi_slli_8>:
    4236:	0c 5c       	rla	r12		;

00004238 <__mspabi_slli_7>:
    4238:	0c 5c       	rla	r12		;

0000423a <__mspabi_slli_6>:
    423a:	0c 5c       	rla	r12		;

0000423c <__mspabi_slli_5>:
    423c:	0c 5c       	rla	r12		;

0000423e <__mspabi_slli_4>:
    423e:	0c 5c       	rla	r12		;

00004240 <__mspabi_slli_3>:
    4240:	0c 5c       	rla	r12		;

00004242 <__mspabi_slli_2>:
    4242:	0c 5c       	rla	r12		;

00004244 <__mspabi_slli_1>:
    4244:	0c 5c       	rla	r12		;
    4246:	30 41       	ret			

00004248 <.L11>:
    4248:	3d 53       	add	#-1,	r13	;r3 As==11
    424a:	0c 5c       	rla	r12		;

0000424c <__mspabi_slli>:
    424c:	0d 93       	cmp	#0,	r13	;r3 As==00
    424e:	fc 23       	jnz	$-6      	;abs 0x4248
    4250:	30 41       	ret			

00004252 <__mspabi_slll_15>:
    4252:	0c 5c       	rla	r12		;
    4254:	0d 6d       	rlc	r13		;

00004256 <__mspabi_slll_14>:
    4256:	0c 5c       	rla	r12		;
    4258:	0d 6d       	rlc	r13		;

0000425a <__mspabi_slll_13>:
    425a:	0c 5c       	rla	r12		;
    425c:	0d 6d       	rlc	r13		;

0000425e <__mspabi_slll_12>:
    425e:	0c 5c       	rla	r12		;
    4260:	0d 6d       	rlc	r13		;

00004262 <__mspabi_slll_11>:
    4262:	0c 5c       	rla	r12		;
    4264:	0d 6d       	rlc	r13		;

00004266 <__mspabi_slll_10>:
    4266:	0c 5c       	rla	r12		;
    4268:	0d 6d       	rlc	r13		;

0000426a <__mspabi_slll_9>:
    426a:	0c 5c       	rla	r12		;
    426c:	0d 6d       	rlc	r13		;

0000426e <__mspabi_slll_8>:
    426e:	0c 5c       	rla	r12		;
    4270:	0d 6d       	rlc	r13		;

00004272 <__mspabi_slll_7>:
    4272:	0c 5c       	rla	r12		;
    4274:	0d 6d       	rlc	r13		;

00004276 <__mspabi_slll_6>:
    4276:	0c 5c       	rla	r12		;
    4278:	0d 6d       	rlc	r13		;

0000427a <__mspabi_slll_5>:
    427a:	0c 5c       	rla	r12		;
    427c:	0d 6d       	rlc	r13		;

0000427e <__mspabi_slll_4>:
    427e:	0c 5c       	rla	r12		;
    4280:	0d 6d       	rlc	r13		;

00004282 <__mspabi_slll_3>:
    4282:	0c 5c       	rla	r12		;
    4284:	0d 6d       	rlc	r13		;

00004286 <__mspabi_slll_2>:
    4286:	0c 5c       	rla	r12		;
    4288:	0d 6d       	rlc	r13		;

0000428a <__mspabi_slll_1>:
    428a:	0c 5c       	rla	r12		;
    428c:	0d 6d       	rlc	r13		;
    428e:	30 41       	ret			

00004290 <.L12>:
    4290:	3e 53       	add	#-1,	r14	;r3 As==11
    4292:	0c 5c       	rla	r12		;
    4294:	0d 6d       	rlc	r13		;

00004296 <__mspabi_slll>:
    4296:	0e 93       	cmp	#0,	r14	;r3 As==00
    4298:	fb 23       	jnz	$-8      	;abs 0x4290
    429a:	30 41       	ret			

0000429c <__mspabi_srai_15>:
    429c:	0c 11       	rra	r12		;

0000429e <__mspabi_srai_14>:
    429e:	0c 11       	rra	r12		;

000042a0 <__mspabi_srai_13>:
    42a0:	0c 11       	rra	r12		;

000042a2 <__mspabi_srai_12>:
    42a2:	0c 11       	rra	r12		;

000042a4 <__mspabi_srai_11>:
    42a4:	0c 11       	rra	r12		;

000042a6 <__mspabi_srai_10>:
    42a6:	0c 11       	rra	r12		;

000042a8 <__mspabi_srai_9>:
    42a8:	0c 11       	rra	r12		;

000042aa <__mspabi_srai_8>:
    42aa:	0c 11       	rra	r12		;

000042ac <__mspabi_srai_7>:
    42ac:	0c 11       	rra	r12		;

000042ae <__mspabi_srai_6>:
    42ae:	0c 11       	rra	r12		;

000042b0 <__mspabi_srai_5>:
    42b0:	0c 11       	rra	r12		;

000042b2 <__mspabi_srai_4>:
    42b2:	0c 11       	rra	r12		;

000042b4 <__mspabi_srai_3>:
    42b4:	0c 11       	rra	r12		;

000042b6 <__mspabi_srai_2>:
    42b6:	0c 11       	rra	r12		;

000042b8 <__mspabi_srai_1>:
    42b8:	0c 11       	rra	r12		;
    42ba:	30 41       	ret			

000042bc <.L11>:
    42bc:	3d 53       	add	#-1,	r13	;r3 As==11
    42be:	0c 11       	rra	r12		;

000042c0 <__mspabi_srai>:
    42c0:	0d 93       	cmp	#0,	r13	;r3 As==00
    42c2:	fc 23       	jnz	$-6      	;abs 0x42bc
    42c4:	30 41       	ret			

000042c6 <__mspabi_sral_15>:
    42c6:	0d 11       	rra	r13		;
    42c8:	0c 10       	rrc	r12		;

000042ca <__mspabi_sral_14>:
    42ca:	0d 11       	rra	r13		;
    42cc:	0c 10       	rrc	r12		;

000042ce <__mspabi_sral_13>:
    42ce:	0d 11       	rra	r13		;
    42d0:	0c 10       	rrc	r12		;

000042d2 <__mspabi_sral_12>:
    42d2:	0d 11       	rra	r13		;
    42d4:	0c 10       	rrc	r12		;

000042d6 <__mspabi_sral_11>:
    42d6:	0d 11       	rra	r13		;
    42d8:	0c 10       	rrc	r12		;

000042da <__mspabi_sral_10>:
    42da:	0d 11       	rra	r13		;
    42dc:	0c 10       	rrc	r12		;

000042de <__mspabi_sral_9>:
    42de:	0d 11       	rra	r13		;
    42e0:	0c 10       	rrc	r12		;

000042e2 <__mspabi_sral_8>:
    42e2:	0d 11       	rra	r13		;
    42e4:	0c 10       	rrc	r12		;

000042e6 <__mspabi_sral_7>:
    42e6:	0d 11       	rra	r13		;
    42e8:	0c 10       	rrc	r12		;

000042ea <__mspabi_sral_6>:
    42ea:	0d 11       	rra	r13		;
    42ec:	0c 10       	rrc	r12		;

000042ee <__mspabi_sral_5>:
    42ee:	0d 11       	rra	r13		;
    42f0:	0c 10       	rrc	r12		;

000042f2 <__mspabi_sral_4>:
    42f2:	0d 11       	rra	r13		;
    42f4:	0c 10       	rrc	r12		;

000042f6 <__mspabi_sral_3>:
    42f6:	0d 11       	rra	r13		;
    42f8:	0c 10       	rrc	r12		;

000042fa <__mspabi_sral_2>:
    42fa:	0d 11       	rra	r13		;
    42fc:	0c 10       	rrc	r12		;

000042fe <__mspabi_sral_1>:
    42fe:	0d 11       	rra	r13		;
    4300:	0c 10       	rrc	r12		;
    4302:	30 41       	ret			

00004304 <.L12>:
    4304:	3e 53       	add	#-1,	r14	;r3 As==11
    4306:	0d 11       	rra	r13		;
    4308:	0c 10       	rrc	r12		;

0000430a <__mspabi_sral>:
    430a:	0e 93       	cmp	#0,	r14	;r3 As==00
    430c:	fb 23       	jnz	$-8      	;abs 0x4304
    430e:	30 41       	ret			

00004310 <__mspabi_mpyi>:
    4310:	02 12       	push	r2		;
    4312:	32 c2       	dint			
    4314:	03 43       	nop			
    4316:	82 4c c0 04 	mov	r12,	&0x04c0	;
    431a:	82 4d c8 04 	mov	r13,	&0x04c8	;
    431e:	1c 42 ca 04 	mov	&0x04ca,r12	;0x04ca
    4322:	00 13       	reti			

00004324 <_exit>:
    4324:	ff 3f       	jmp	$+0      	;abs 0x4324

00004326 <memmove>:
    4326:	0b 4c       	mov	r12,	r11	;

00004328 <L0>:
    4328:	0b 5e       	add	r14,	r11	;

0000432a <.Loc.69.1>:
    432a:	0d 9c       	cmp	r12,	r13	;
    432c:	08 28       	jnc	$+18     	;abs 0x433e

0000432e <.L4>:
    432e:	0e 4c       	mov	r12,	r14	;

00004330 <.L3>:
    4330:	0b 9e       	cmp	r14,	r11	;
    4332:	0f 24       	jz	$+32     	;abs 0x4352

00004334 <.LVL3>:
    4334:	ee 4d 00 00 	mov.b	@r13,	0(r14)	;
    4338:	1e 53       	inc	r14		;

0000433a <.LVL4>:
    433a:	1d 53       	inc	r13		;
    433c:	f9 3f       	jmp	$-12     	;abs 0x4330

0000433e <.L2>:
    433e:	0f 4d       	mov	r13,	r15	;
    4340:	0f 5e       	add	r14,	r15	;
    4342:	0c 9f       	cmp	r15,	r12	;
    4344:	f4 2f       	jc	$-22     	;abs 0x432e

00004346 <.LVL6>:
    4346:	0d 4f       	mov	r15,	r13	;

00004348 <.LVL7>:
    4348:	0e 8f       	sub	r15,	r14	;

0000434a <.L5>:
    434a:	0f 4d       	mov	r13,	r15	;
    434c:	0f 5e       	add	r14,	r15	;
    434e:	0f 93       	cmp	#0,	r15	;r3 As==00
    4350:	01 20       	jnz	$+4      	;abs 0x4354

00004352 <.L9>:
    4352:	30 41       	ret			

00004354 <.L6>:
    4354:	3b 53       	add	#-1,	r11	;r3 As==11
    4356:	3d 53       	add	#-1,	r13	;r3 As==11

00004358 <.LVL12>:
    4358:	eb 4d 00 00 	mov.b	@r13,	0(r11)	;
    435c:	f6 3f       	jmp	$-18     	;abs 0x434a

0000435e <memset>:
    435e:	0f 4c       	mov	r12,	r15	;
    4360:	0e 5c       	add	r12,	r14	;

00004362 <L0>:
    4362:	0f 9e       	cmp	r14,	r15	;
    4364:	01 20       	jnz	$+4      	;abs 0x4368

00004366 <.Loc.104.1>:
    4366:	30 41       	ret			

00004368 <.L3>:
    4368:	cf 4d 00 00 	mov.b	r13,	0(r15)	;
    436c:	1f 53       	inc	r15		;

0000436e <.LVL4>:
    436e:	f9 3f       	jmp	$-12     	;abs 0x4362

00004370 <__do_global_ctors_aux>:
    4370:	0a 15       	pushm	#1,	r10	;16-bit words

00004372 <L0>:
    4372:	3a 40 04 40 	mov	#16388,	r10	;#0x4004

00004376 <.L2>:
    4376:	2c 4a       	mov	@r10,	r12	;
    4378:	3c 93       	cmp	#-1,	r12	;r3 As==11
    437a:	02 20       	jnz	$+6      	;abs 0x4380
    437c:	0a 17       	popm	#1,	r10	;16-bit words
    437e:	30 41       	ret			

00004380 <.L3>:
    4380:	8c 12       	call	r12		;
    4382:	3a 50 fe ff 	add	#65534,	r10	;#0xfffe
    4386:	f7 3f       	jmp	$-16     	;abs 0x4376

00004388 <__msp430_init>:
    4388:	b0 12 0e 41 	call	#16654		;#0x410e
    438c:	b0 12 70 43 	call	#17264		;#0x4370

00004390 <L0>:
    4390:	b0 12 50 40 	call	#16464		;#0x4050

00004394 <.Loc.19.1>:
    4394:	b0 12 44 40 	call	#16452		;#0x4044

00004398 <.Loc.20.1>:
    4398:	30 41       	ret			

0000439a <__msp430_fini>:
    439a:	b0 12 5c 40 	call	#16476		;#0x405c

0000439e <L0>:
    439e:	b0 12 c4 40 	call	#16580		;#0x40c4

000043a2 <L0>:
    43a2:	30 41       	ret			

Disassembly of section .MSP430.attributes:

00000000 <.MSP430.attributes>:
   0:	41 16       	popm.a	#5,	r5	;20-bit words
   2:	00 00       	beq			
   4:	00 6d       	addc	r13,	r0	;
   6:	73 70       	.word	0x7073;	????
   8:	61 62       	addc.b	#4,	r1	;r2 As==10
   a:	69 00 01 0b 	mova	r0,	&592641	; 0x90b01
   e:	00 00       	beq			
  10:	00 04       	bra	@r4		;
  12:	02 06       	mova	@r6,	r2	;
  14:	01 08       	mova	@r8,	r1	;
  16:	01 00       	Address 0x0000000000000016 is out of bounds.
.word	0xffff;	????

Disassembly of section .comment:

00000000 <.comment>:
   0:	47 43       	clr.b	r7		;
   2:	43 3a       	jl	$-888    	;abs 0xfffffffffffffc8a
   4:	20 28       	jnc	$+66     	;abs 0x46
   6:	53 4f       	.word	0x4f53;	????
   8:	4d 4e       	mov.b	r14,	r13	;
   a:	49 55       	add.b	r5,	r9	;
   c:	4d 20       	jnz	$+156    	;abs 0xa8
   e:	54 65 63 68 	addc.b	26723(r5),r4	;0x06863
  12:	6e 6f       	addc.b	@r15,	r14	;
  14:	6c 6f       	addc.b	@r15,	r12	;
  16:	67 69       	addc.b	@r9,	r7	;
  18:	65 73       	subc.b	#2,	r5	;r3 As==10
  1a:	20 4c       	br	@r12		;
  1c:	69 6d       	addc.b	@r13,	r9	;
  1e:	69 74       	subc.b	@r4,	r9	;
  20:	65 64       	addc.b	@r4,	r5	;
  22:	20 2d       	jc	$+578    	;abs 0x264
  24:	20 6d       	addc	@r13,	r0	;
  26:	73 70       	.word	0x7073;	????
  28:	34 33       	jn	$-406    	;abs 0xfffffffffffffe92
  2a:	30 2d       	jc	$+610    	;abs 0x28c
  2c:	67 63       	addc.b	#2,	r7	;r3 As==10
  2e:	63 20       	jnz	$+200    	;abs 0xf6
  30:	36 2e       	jc	$-914    	;abs 0xfffffffffffffc9e
  32:	34 2e       	jc	$-918    	;abs 0xfffffffffffffc9c
  34:	30 2e       	jc	$-926    	;abs 0xfffffffffffffc96
  36:	33 32       	jn	$-920    	;abs 0xfffffffffffffc9e
  38:	29 20       	jnz	$+84     	;abs 0x8c
  3a:	36 2e       	jc	$-914    	;abs 0xfffffffffffffca8
  3c:	34 2e       	jc	$-918    	;abs 0xfffffffffffffca6
  3e:	30 00 50 00 	Address 0x0000000000000040 is out of bounds.
bra	-1(r0)		;PC rel. 0x0003f
