
test/test.out:     file format elf32-msp430
test/test.out
architecture: MSP430X, flags 0x00000112:
EXEC_P, HAS_SYMS, D_PAGED
start address 0x00004010

Program Header:
    LOAD off    0x00000000 vaddr 0x00001b0c paddr 0x00001b0c align 2**2
         filesz 0x000000f4 memsz 0x0000010c flags rw-
    LOAD off    0x000000f4 vaddr 0x00004000 paddr 0x00004000 align 2**2
         filesz 0x0000000c memsz 0x0000000c flags rw-
    LOAD off    0x00000100 vaddr 0x00001c00 paddr 0x0000400c align 2**2
         filesz 0x00000002 memsz 0x00000002 flags rw-
    LOAD off    0x00000104 vaddr 0x00010000 paddr 0x0000400e align 2**2
         filesz 0x00000002 memsz 0x00000002 flags rw-
    LOAD off    0x00000108 vaddr 0x00004010 paddr 0x00004010 align 2**2
         filesz 0x00000340 memsz 0x00000340 flags r-x
    LOAD off    0x0000044a vaddr 0x0000fffe paddr 0x0000fffe align 2**2
         filesz 0x00000002 memsz 0x00000002 flags r--

Sections:
Idx Name          Size      VMA       LMA       File off  Algn
  0 __reset_vector 00000002  0000fffe  0000fffe  0000044a  2**0
                  CONTENTS, ALLOC, LOAD, READONLY, DATA
  1 .lower.rodata 00000000  00004000  00004000  0000044c  2**0
                  CONTENTS
  2 .rodata       00000000  00004000  00004000  0000044c  2**0
                  CONTENTS, ALLOC, LOAD, DATA
  3 .rodata2      0000000c  00004000  00004000  000000f4  2**2
                  CONTENTS, ALLOC, LOAD, DATA
  4 .persistent   00000000  0000400c  0000400c  0000044c  2**0
                  CONTENTS
  5 .lower.data   00000000  00001c00  00001c00  0000044c  2**0
                  CONTENTS
  6 .data         00000002  00001c00  0000400c  00000100  2**1
                  CONTENTS, ALLOC, LOAD, DATA
  7 .upper.data   00000002  00010000  0000400e  00000104  2**0
                  CONTENTS, ALLOC, LOAD, DATA
  8 .lower.bss    00000000  00001c02  00001c02  0000044c  2**0
                  CONTENTS
  9 .bss          00000012  00001c02  00001c02  000000f6  2**1
                  ALLOC
 10 .noinit       00000000  00001c14  00001c14  0000044c  2**0
                  CONTENTS
 11 .upper.bss    00000000  00010002  00010002  0000044c  2**0
                  CONTENTS
 12 .heap         00000004  00001c14  00001c14  000000f6  2**0
                  ALLOC
 13 .lower.text   00000000  00004010  00004010  0000044c  2**0
                  CONTENTS
 14 .text         00000340  00004010  00004010  00000108  2**1
                  CONTENTS, ALLOC, LOAD, READONLY, CODE
 15 .upper.text   00000000  00010002  00010002  0000044c  2**0
                  CONTENTS
 16 .MSP430.attributes 00000017  00000000  00000000  0000044c  2**0
                  CONTENTS, READONLY
 17 .comment      00000040  00000000  00000000  00000463  2**0
                  CONTENTS, READONLY
SYMBOL TABLE:
0000fffe l    d  __reset_vector	00000000 __reset_vector
00004000 l    d  .lower.rodata	00000000 .lower.rodata
00004000 l    d  .rodata	00000000 .rodata
00004000 l    d  .rodata2	00000000 .rodata2
0000400c l    d  .persistent	00000000 .persistent
00001c00 l    d  .lower.data	00000000 .lower.data
00001c00 l    d  .data	00000000 .data
00010000 l    d  .upper.data	00000000 .upper.data
00001c02 l    d  .lower.bss	00000000 .lower.bss
00001c02 l    d  .bss	00000000 .bss
00001c14 l    d  .noinit	00000000 .noinit
00010002 l    d  .upper.bss	00000000 .upper.bss
00001c14 l    d  .heap	00000000 .heap
00004010 l    d  .lower.text	00000000 .lower.text
00004010 l    d  .text	00000000 .text
00010002 l    d  .upper.text	00000000 .upper.text
00000000 l    d  .MSP430.attributes	00000000 .MSP430.attributes
00000000 l    d  .comment	00000000 .comment
00000000 l    df *ABS*	00000000 /home/d/Downloads/msp430-gcc-6.4.0.32_linux64/bin/../lib/gcc/msp430-elf/6.4.0/../../../../msp430-elf/lib/crt0.o
0000fffe l       __reset_vector	00000000 __msp430_resetvec_hook
0000406a l       .text	00000000 _msp430_run_array
00004078 l       .text	00000000 _msp430_run_done
00000000 l    df *ABS*	00000000 /home/d/Downloads/msp430-gcc-6.4.0.32_linux64/bin/../lib/gcc/msp430-elf/6.4.0/crtbegin.o
00004004 l     O .rodata2	00000000 __CTOR_LIST__
00004008 l     O .rodata2	00000000 __DTOR_LIST__
00004000 l     O .rodata2	00000000 __EH_FRAME_BEGIN__
00001c00 l     O .data	00000000 __JCR_LIST__
00004350 l     O .text	00000000 __TMC_LIST__
0000407a l     F .text	00000000 deregister_tm_clones
00004098 l     F .text	00000000 register_tm_clones
000040c4 l     F .text	00000000 __do_global_dtors_aux
00001c02 l     O .bss	00000000 completed.3094
00001c04 l     O .bss	00000000 dtor_idx.3096
0000410e l     F .text	00000000 frame_dummy
00001c06 l     O .bss	00000000 object.3109
00000000 l    df *ABS*	00000000 /home/d/Downloads/msp430-gcc-6.4.0.32_linux64/bin/../lib/gcc/msp430-elf/6.4.0/crtend.o
00004006 l     O .rodata2	00000000 __CTOR_END__
00004000 l     O .rodata2	00000000 __FRAME_END__
00001c00 l     O .data	00000000 __JCR_END__
0000431c l     F .text	00000000 __do_global_ctors_aux
00000000 l    df *ABS*	00000000 crt_bss.o
00000000 l    df *ABS*	00000000 crt_movedata.o
00000000 l    df *ABS*	00000000 crt_main.o
00000000 l    df *ABS*	00000000 crt_callexit.o
00000000 l    df *ABS*	00000000 test.c
0000413a l     F .text	000000a6 testSimple
00000000 l    df *ABS*	00000000 slli.o
00000000 l    df *ABS*	00000000 srai.o
00000000 l    df *ABS*	00000000 ciosyscalls.o
00000000 l    df *ABS*	00000000 lib_a-memmove.o
00000000 l    df *ABS*	00000000 lib_a-memset.o
00000000 l    df *ABS*	00000000 /home/d/Downloads/msp430-gcc-6.4.0.32_linux64/bin/../lib/gcc/msp430-elf/6.4.0/../../../../msp430-elf/lib/crtn.o
00000000 l    df *ABS*	00000000 
00000000 l       *UND*	00000000 __sf_fake_stderr
00004010 l       .text	00000000 _start
00000000 l       *UND*	00000000 __sf_fake_stdin
00000000 l       *UND*	00000000 __sf_fake_stdout
0000422a g       .text	00000000 .hidden __mspabi_slll_9
0000421a g       .text	00000000 .hidden __mspabi_slll_13
0000426e g       .text	00000000 .hidden __mspabi_srai_6
00004278 g       .text	00000000 .hidden __mspabi_srai_1
0000429a g       .text	00000000 .hidden __mspabi_sral_10
0000428a g       .text	00000000 .hidden __mspabi_sral_14
000041f4 g       .text	00000000 .hidden __mspabi_slli_9
000042d2 g     F .text	0000003c memmove
000041ee g       .text	00000000 .hidden __mspabi_slli_12
00004040 g     F .text	00000004 __crt0_call_exit
00010002 g       .upper.data	00000000 __high_dataend
0000429e g       .text	00000000 .hidden __mspabi_sral_9
000042aa g       .text	00000000 .hidden __mspabi_sral_6
000042be g       .text	00000000 .hidden __mspabi_sral_1
0000425c g       .text	00000000 .hidden __mspabi_srai_15
00004350 g     O .text	00000000 .hidden __TMC_END__
0000400a g     O .rodata2	00000000 .hidden __DTOR_END__
00004000 g       .rodata	00000000 __fini_array_end
00004276 g       .text	00000000 .hidden __mspabi_srai_2
00004274 g       .text	00000000 .hidden __mspabi_srai_3
00004010 g     F .text	00000004 __crt0_start
00001c18 g       .heap	00000000 __HeapLimit
00004222 g       .text	00000000 .hidden __mspabi_slll_11
00004212 g       .text	00000000 .hidden __mspabi_slll_15
00001c18 g       .heap	00000000 __heap_end__
000041ea g       .text	00000000 .hidden __mspabi_slli_14
000041fe g       .text	00000000 .hidden __mspabi_slli_4
00004014 g     F .text	0000000e __crt0_init_bss
00000012 g       *ABS*	00000000 __bsssize
00004246 g       .text	00000000 .hidden __mspabi_slll_2
00004266 g       .text	00000000 .hidden __mspabi_srai_10
00004036 g     F .text	0000000a __crt0_call_init_then_main
0000420c g       .text	00000000 .hidden __mspabi_slli
00010002 g       .upper.bss	00000000 __high_bssend
0000423a g       .text	00000000 .hidden __mspabi_slll_5
000041f0 g       .text	00000000 .hidden __mspabi_slli_11
00004200 g       .text	00000000 .hidden __mspabi_slli_3
00000000  w      *UND*	00000000 __deregister_frame_info
00004296 g       .text	00000000 .hidden __mspabi_sral_11
00004286 g       .text	00000000 .hidden __mspabi_sral_15
0000426c g       .text	00000000 .hidden __mspabi_srai_7
00000000  w      *UND*	00000000 _ITM_registerTMCloneTable
00004202 g       .text	00000000 .hidden __mspabi_slli_2
000042b2 g       .text	00000000 .hidden __mspabi_sral_4
00004236 g       .text	00000000 .hidden __mspabi_slll_6
0000423e g       .text	00000000 .hidden __mspabi_slll_4
0000422e g       .text	00000000 .hidden __mspabi_slll_8
0000405c g     F .text	00000000 _msp430_run_fini_array
000041fa g       .text	00000000 .hidden __mspabi_slli_6
00004280 g       .text	00000000 .hidden __mspabi_srai
00004262 g       .text	00000000 .hidden __mspabi_srai_12
00000002 g       *ABS*	00000000 __romdatacopysize
00004216 g       .text	00000000 .hidden __mspabi_slll_14
000042a6 g       .text	00000000 .hidden __mspabi_sral_7
0000426a g       .text	00000000 .hidden __mspabi_srai_8
000042ba g       .text	00000000 .hidden __mspabi_sral_2
00004232 g       .text	00000000 .hidden __mspabi_slll_7
00000000  w      *UND*	00000000 _ITM_deregisterTMCloneTable
00004000 g       .rodata	00000000 __fini_array_start
00000000 g       *ABS*	00000000 __rom_highdatacopysize
00004334 g       .text	00000000 __msp430_init
0000430a g     F .text	00000014 memset
0000421e g       .text	00000000 .hidden __mspabi_slll_12
000041e0 g     F .text	00000008 main
00004268 g       .text	00000000 .hidden __mspabi_srai_9
00004264 g       .text	00000000 .hidden __mspabi_srai_11
00004000 g       .rodata	00000000 __init_array_end
00001c14 g       .heap	00000000 __heap_start__
000042ca g       .text	00000000 .hidden __mspabi_sral
00004204 g       .text	00000000 .hidden __mspabi_slli_1
00000000 g       *ABS*	00000000 __high_bsssize
00004242 g       .text	00000000 .hidden __mspabi_slll_3
00004010 g       *ABS*	00000000 __rom_highdatastart
00004350 g       .text	00000000 __msp430_fini_end
000042a2 g       .text	00000000 .hidden __mspabi_sral_8
0000428e g       .text	00000000 .hidden __mspabi_sral_13
000041fc g       .text	00000000 .hidden __mspabi_slli_5
0000400c g       *ABS*	00000000 __romdatastart
000041ec g       .text	00000000 .hidden __mspabi_slli_13
00004272 g       .text	00000000 .hidden __mspabi_srai_4
00004044 g     F .text	00000000 _msp430_run_init_array
00004000 g       .rodata	00000000 __preinit_array_end
000041f2 g       .text	00000000 .hidden __mspabi_slli_10
00010002 g       .upper.data	00000000 __high_datastart
0000400e g       *ABS*	00000000 __upper_data_init
00001c02 g       .lower.bss	00000000 __bssstart
0000425e g       .text	00000000 .hidden __mspabi_srai_14
00004256 g       .text	00000000 .hidden __mspabi_slll
00002c00 g       .lower.text	00000000 __stack
000042b6 g       .text	00000000 .hidden __mspabi_sral_3
00001c02 g       .data	00000000 _edata
00004292 g       .text	00000000 .hidden __mspabi_sral_12
00001c14 g       .heap	00000000 _end
00004346 g       .text	00000000 __msp430_init_end
000042d0  w    F .text	00000004 exit
00010002 g       .upper.bss	00000000 __high_bssstart
000041f6 g       .text	00000000 .hidden __mspabi_slli_8
00004226 g       .text	00000000 .hidden __mspabi_slll_10
000041e8 g       .text	00000000 .hidden __mspabi_slli_15
00004000 g       .rodata	00000000 __init_array_start
000042d0  w    F .text	00000004 _exit
00004270 g       .text	00000000 .hidden __mspabi_srai_5
00004260 g       .text	00000000 .hidden __mspabi_srai_13
00001c00 g       .lower.data	00000000 __datastart
0000424a g       .text	00000000 .hidden __mspabi_slll_1
00000000  w      *UND*	00000000 _Jv_RegisterClasses
000041f8 g       .text	00000000 .hidden __mspabi_slli_7
00004000 g       .rodata	00000000 __preinit_array_start
00004022 g     F .text	00000014 __crt0_movedata
00000000  w      *UND*	00000000 __register_frame_info
000042ae g       .text	00000000 .hidden __mspabi_sral_5
00004050 g     F .text	00000000 _msp430_run_preinit_array
00004346 g       .text	00000000 __msp430_fini



Disassembly of section __reset_vector:

0000fffe <__msp430_resetvec_hook>:
    fffe:	10 40       	interrupt service routine at 0x4010

Disassembly of section .upper.data:

00010000 <__high_dataend-0x2>:
   10000:	01 00       	mova	@r0,	r1	;

Disassembly of section .text:

00004010 <__crt0_start>:
    4010:	31 40 00 2c 	mov	#11264,	r1	;#0x2c00

00004014 <__crt0_init_bss>:
    4014:	3c 40 02 1c 	mov	#7170,	r12	;#0x1c02

00004018 <.Loc.74.1>:
    4018:	0d 43       	clr	r13		;

0000401a <.Loc.75.1>:
    401a:	3e 40 12 00 	mov	#18,	r14	;#0x0012

0000401e <.Loc.79.1>:
    401e:	b0 12 0a 43 	call	#17162		;#0x430a

00004022 <__crt0_movedata>:
    4022:	3c 40 00 1c 	mov	#7168,	r12	;#0x1c00

00004026 <.Loc.116.1>:
    4026:	3d 40 0c 40 	mov	#16396,	r13	;#0x400c

0000402a <.Loc.119.1>:
    402a:	0d 9c       	cmp	r12,	r13	;

0000402c <.Loc.120.1>:
    402c:	04 24       	jz	$+10     	;abs 0x4036

0000402e <.Loc.122.1>:
    402e:	3e 40 02 00 	mov	#2,	r14	;

00004032 <.Loc.124.1>:
    4032:	b0 12 d2 42 	call	#17106		;#0x42d2

00004036 <__crt0_call_init_then_main>:
    4036:	b0 12 34 43 	call	#17204		;#0x4334

0000403a <.Loc.196.1>:
    403a:	0c 43       	clr	r12		;

0000403c <.Loc.197.1>:
    403c:	b0 12 e0 41 	call	#16864		;#0x41e0

00004040 <__crt0_call_exit>:
    4040:	b0 12 d0 42 	call	#17104		;#0x42d0

00004044 <_msp430_run_init_array>:
    4044:	34 40 00 40 	mov	#16384,	r4	;#0x4000

00004048 <.Loc.224.1>:
    4048:	35 40 00 40 	mov	#16384,	r5	;#0x4000

0000404c <.Loc.225.1>:
    404c:	26 43       	mov	#2,	r6	;r3 As==10

0000404e <.Loc.226.1>:
    404e:	0d 3c       	jmp	$+28     	;abs 0x406a

00004050 <_msp430_run_preinit_array>:
    4050:	34 40 00 40 	mov	#16384,	r4	;#0x4000

00004054 <.Loc.232.1>:
    4054:	35 40 00 40 	mov	#16384,	r5	;#0x4000

00004058 <.Loc.233.1>:
    4058:	26 43       	mov	#2,	r6	;r3 As==10

0000405a <.Loc.234.1>:
    405a:	07 3c       	jmp	$+16     	;abs 0x406a

0000405c <_msp430_run_fini_array>:
    405c:	34 40 00 40 	mov	#16384,	r4	;#0x4000

00004060 <.Loc.240.1>:
    4060:	35 40 00 40 	mov	#16384,	r5	;#0x4000

00004064 <.Loc.241.1>:
    4064:	36 40 fe ff 	mov	#65534,	r6	;#0xfffe

00004068 <.Loc.242.1>:
    4068:	00 3c       	jmp	$+2      	;abs 0x406a

0000406a <_msp430_run_array>:
    406a:	05 94       	cmp	r4,	r5	;

0000406c <.Loc.246.1>:
    406c:	05 24       	jz	$+12     	;abs 0x4078

0000406e <.Loc.247.1>:
    406e:	27 44       	mov	@r4,	r7	;

00004070 <.Loc.248.1>:
    4070:	04 56       	add	r6,	r4	;

00004072 <.Loc.249.1>:
    4072:	a7 12       	call	@r7		;

00004074 <.Loc.250.1>:
    4074:	10 40 f4 ff 	br	0xfff4		;PC rel. 0x406a

00004078 <_msp430_run_done>:
    4078:	30 41       	ret			

0000407a <deregister_tm_clones>:
    407a:	3c 40 50 43 	mov	#17232,	r12	;#0x4350
    407e:	3c 80 4f 43 	sub	#17231,	r12	;#0x434f

00004080 <L0>:
    4080:	4f 43       	clr.b	r15		;
    4082:	6d 43       	mov.b	#2,	r13	;r3 As==10
    4084:	0d 9c       	cmp	r12,	r13	;
    4086:	07 2c       	jc	$+16     	;abs 0x4096
    4088:	3d 40 00 00 	mov	#0,	r13	;
    408c:	0d 93       	cmp	#0,	r13	;r3 As==00
    408e:	03 24       	jz	$+8      	;abs 0x4096
    4090:	3c 40 50 43 	mov	#17232,	r12	;#0x4350
    4094:	8d 12       	call	r13		;

00004096 <.L1>:
    4096:	30 41       	ret			

00004098 <register_tm_clones>:
    4098:	3d 40 50 43 	mov	#17232,	r13	;#0x4350
    409c:	3d 80 50 43 	sub	#17232,	r13	;#0x4350
    40a0:	0c 4d       	mov	r13,	r12	;
    40a2:	0c 11       	rra	r12		;
    40a4:	0d 4c       	mov	r12,	r13	;
    40a6:	5d 03       	rrum	#1,	r13	;
    40a8:	4d 18 0d 11 	rpt #14 { rrax.w	r13		;
    40ac:	0d 5c       	add	r12,	r13	;
    40ae:	0d 11       	rra	r13		;
    40b0:	0d 93       	cmp	#0,	r13	;r3 As==00
    40b2:	07 24       	jz	$+16     	;abs 0x40c2
    40b4:	3e 40 00 00 	mov	#0,	r14	;
    40b8:	0e 93       	cmp	#0,	r14	;r3 As==00
    40ba:	03 24       	jz	$+8      	;abs 0x40c2
    40bc:	3c 40 50 43 	mov	#17232,	r12	;#0x4350
    40c0:	8e 12       	call	r14		;

000040c2 <.L6>:
    40c2:	30 41       	ret			

000040c4 <__do_global_dtors_aux>:
    40c4:	1a 15       	pushm	#2,	r10	;16-bit words
    40c6:	c2 93 02 1c 	cmp.b	#0,	&0x1c02	;r3 As==00
    40ca:	17 20       	jnz	$+48     	;abs 0x40fa
    40cc:	3a 40 0a 40 	mov	#16394,	r10	;#0x400a
    40d0:	3a 80 08 40 	sub	#16392,	r10	;#0x4008
    40d4:	0a 11       	rra	r10		;
    40d6:	3a 53       	add	#-1,	r10	;r3 As==11
    40d8:	39 40 08 40 	mov	#16392,	r9	;#0x4008

000040dc <.L16>:
    40dc:	1c 42 04 1c 	mov	&0x1c04,r12	;0x1c04
    40e0:	0c 9a       	cmp	r10,	r12	;
    40e2:	0d 28       	jnc	$+28     	;abs 0x40fe
    40e4:	b0 12 7a 40 	call	#16506		;#0x407a
    40e8:	3d 40 00 00 	mov	#0,	r13	;
    40ec:	0d 93       	cmp	#0,	r13	;r3 As==00
    40ee:	03 24       	jz	$+8      	;abs 0x40f6
    40f0:	3c 40 00 40 	mov	#16384,	r12	;#0x4000
    40f4:	8d 12       	call	r13		;

000040f6 <.L18>:
    40f6:	d2 43 02 1c 	mov.b	#1,	&0x1c02	;r3 As==01

000040fa <.L14>:
    40fa:	19 17       	popm	#2,	r10	;16-bit words
    40fc:	30 41       	ret			

000040fe <.L17>:
    40fe:	1c 53       	inc	r12		;
    4100:	82 4c 04 1c 	mov	r12,	&0x1c04	;
    4104:	0c 5c       	rla	r12		;
    4106:	0c 59       	add	r9,	r12	;
    4108:	2c 4c       	mov	@r12,	r12	;
    410a:	8c 12       	call	r12		;
    410c:	e7 3f       	jmp	$-48     	;abs 0x40dc

0000410e <frame_dummy>:
    410e:	3e 40 00 00 	mov	#0,	r14	;
    4112:	0e 93       	cmp	#0,	r14	;r3 As==00
    4114:	05 24       	jz	$+12     	;abs 0x4120
    4116:	3d 40 06 1c 	mov	#7174,	r13	;#0x1c06
    411a:	3c 40 00 40 	mov	#16384,	r12	;#0x4000
    411e:	8e 12       	call	r14		;

00004120 <.L24>:
    4120:	3c 40 00 1c 	mov	#7168,	r12	;#0x1c00
    4124:	8c 93 00 00 	cmp	#0,	0(r12)	;r3 As==00
    4128:	05 24       	jz	$+12     	;abs 0x4134
    412a:	3d 40 00 00 	mov	#0,	r13	;
    412e:	0d 93       	cmp	#0,	r13	;r3 As==00
    4130:	01 24       	jz	$+4      	;abs 0x4134
    4132:	8d 12       	call	r13		;

00004134 <.L25>:
    4134:	b0 12 98 40 	call	#16536		;#0x4098
    4138:	30 41       	ret			

0000413a <testSimple>:
    413a:	31 80 1c 00 	sub	#28,	r1	;#0x001c
    413e:	81 43 00 00 	mov	#0,	0(r1)	;r3 As==00
    4142:	81 43 02 00 	mov	#0,	2(r1)	;r3 As==00
    4146:	81 43 04 00 	mov	#0,	4(r1)	;r3 As==00
    414a:	81 43 06 00 	mov	#0,	6(r1)	;r3 As==00
    414e:	81 43 08 00 	mov	#0,	8(r1)	;r3 As==00
    4152:	81 43 0a 00 	mov	#0,	10(r1)	;r3 As==00, 0x000a
    4156:	81 43 0c 00 	mov	#0,	12(r1)	;r3 As==00, 0x000c
    415a:	81 43 0e 00 	mov	#0,	14(r1)	;r3 As==00, 0x000e
    415e:	81 43 10 00 	mov	#0,	16(r1)	;r3 As==00, 0x0010
    4162:	81 43 12 00 	mov	#0,	18(r1)	;r3 As==00, 0x0012
    4166:	91 43 00 00 	mov	#1,	0(r1)	;r3 As==01
    416a:	a1 43 02 00 	mov	#2,	2(r1)	;r3 As==10
    416e:	b1 40 03 00 	mov	#3,	4(r1)	;
    4172:	04 00 
    4174:	b1 40 05 00 	mov	#5,	6(r1)	;
    4178:	06 00 
    417a:	b1 40 06 00 	mov	#6,	8(r1)	;
    417e:	08 00 
    4180:	b1 40 07 00 	mov	#7,	10(r1)	; 0x000a
    4184:	0a 00 
    4186:	b1 42 0c 00 	mov	#8,	12(r1)	;r2 As==11, 0x000c
    418a:	b1 40 09 00 	mov	#9,	14(r1)	; 0x000e
    418e:	0e 00 
    4190:	91 43 18 00 	mov	#1,	24(r1)	;r3 As==01, 0x0018
    4194:	a1 43 16 00 	mov	#2,	22(r1)	;r3 As==10, 0x0016
    4198:	a1 42 14 00 	mov	#4,	20(r1)	;r2 As==10, 0x0014
    419c:	81 43 1a 00 	mov	#0,	26(r1)	;r3 As==00, 0x001a
    41a0:	1c 41 18 00 	mov	24(r1),	r12	;0x00018
    41a4:	1d 41 16 00 	mov	22(r1),	r13	;0x00016
    41a8:	b0 12 0c 42 	call	#16908		;#0x420c
    41ac:	2c 92       	cmp	#4,	r12	;r2 As==10
    41ae:	02 20       	jnz	$+6      	;abs 0x41b4
    41b0:	91 53 1a 00 	inc	26(r1)		;

000041b4 <.L2>:
    41b4:	1c 41 14 00 	mov	20(r1),	r12	;0x00014
    41b8:	1d 41 18 00 	mov	24(r1),	r13	;0x00018
    41bc:	b0 12 80 42 	call	#17024		;#0x4280
    41c0:	2c 93       	cmp	#2,	r12	;r3 As==10
    41c2:	02 20       	jnz	$+6      	;abs 0x41c8
    41c4:	91 53 1a 00 	inc	26(r1)		;

000041c8 <.L5>:
    41c8:	91 53 1a 00 	inc	26(r1)		;
    41cc:	91 91 18 00 	cmp	24(r1),	22(r1)	;0x00018, 0x0016
    41d0:	16 00 
    41d2:	02 38       	jl	$+6      	;abs 0x41d8
    41d4:	91 53 1a 00 	inc	26(r1)		;

000041d8 <.L6>:
    41d8:	03 43       	nop			
    41da:	31 50 1c 00 	add	#28,	r1	;#0x001c
    41de:	30 41       	ret			

000041e0 <main>:
    41e0:	b0 12 3a 41 	call	#16698		;#0x413a
    41e4:	4c 43       	clr.b	r12		;
    41e6:	30 41       	ret			

000041e8 <__mspabi_slli_15>:
    41e8:	0c 5c       	rla	r12		;

000041ea <__mspabi_slli_14>:
    41ea:	0c 5c       	rla	r12		;

000041ec <__mspabi_slli_13>:
    41ec:	0c 5c       	rla	r12		;

000041ee <__mspabi_slli_12>:
    41ee:	0c 5c       	rla	r12		;

000041f0 <__mspabi_slli_11>:
    41f0:	0c 5c       	rla	r12		;

000041f2 <__mspabi_slli_10>:
    41f2:	0c 5c       	rla	r12		;

000041f4 <__mspabi_slli_9>:
    41f4:	0c 5c       	rla	r12		;

000041f6 <__mspabi_slli_8>:
    41f6:	0c 5c       	rla	r12		;

000041f8 <__mspabi_slli_7>:
    41f8:	0c 5c       	rla	r12		;

000041fa <__mspabi_slli_6>:
    41fa:	0c 5c       	rla	r12		;

000041fc <__mspabi_slli_5>:
    41fc:	0c 5c       	rla	r12		;

000041fe <__mspabi_slli_4>:
    41fe:	0c 5c       	rla	r12		;

00004200 <__mspabi_slli_3>:
    4200:	0c 5c       	rla	r12		;

00004202 <__mspabi_slli_2>:
    4202:	0c 5c       	rla	r12		;

00004204 <__mspabi_slli_1>:
    4204:	0c 5c       	rla	r12		;
    4206:	30 41       	ret			

00004208 <.L11>:
    4208:	3d 53       	add	#-1,	r13	;r3 As==11
    420a:	0c 5c       	rla	r12		;

0000420c <__mspabi_slli>:
    420c:	0d 93       	cmp	#0,	r13	;r3 As==00
    420e:	fc 23       	jnz	$-6      	;abs 0x4208
    4210:	30 41       	ret			

00004212 <__mspabi_slll_15>:
    4212:	0c 5c       	rla	r12		;
    4214:	0d 6d       	rlc	r13		;

00004216 <__mspabi_slll_14>:
    4216:	0c 5c       	rla	r12		;
    4218:	0d 6d       	rlc	r13		;

0000421a <__mspabi_slll_13>:
    421a:	0c 5c       	rla	r12		;
    421c:	0d 6d       	rlc	r13		;

0000421e <__mspabi_slll_12>:
    421e:	0c 5c       	rla	r12		;
    4220:	0d 6d       	rlc	r13		;

00004222 <__mspabi_slll_11>:
    4222:	0c 5c       	rla	r12		;
    4224:	0d 6d       	rlc	r13		;

00004226 <__mspabi_slll_10>:
    4226:	0c 5c       	rla	r12		;
    4228:	0d 6d       	rlc	r13		;

0000422a <__mspabi_slll_9>:
    422a:	0c 5c       	rla	r12		;
    422c:	0d 6d       	rlc	r13		;

0000422e <__mspabi_slll_8>:
    422e:	0c 5c       	rla	r12		;
    4230:	0d 6d       	rlc	r13		;

00004232 <__mspabi_slll_7>:
    4232:	0c 5c       	rla	r12		;
    4234:	0d 6d       	rlc	r13		;

00004236 <__mspabi_slll_6>:
    4236:	0c 5c       	rla	r12		;
    4238:	0d 6d       	rlc	r13		;

0000423a <__mspabi_slll_5>:
    423a:	0c 5c       	rla	r12		;
    423c:	0d 6d       	rlc	r13		;

0000423e <__mspabi_slll_4>:
    423e:	0c 5c       	rla	r12		;
    4240:	0d 6d       	rlc	r13		;

00004242 <__mspabi_slll_3>:
    4242:	0c 5c       	rla	r12		;
    4244:	0d 6d       	rlc	r13		;

00004246 <__mspabi_slll_2>:
    4246:	0c 5c       	rla	r12		;
    4248:	0d 6d       	rlc	r13		;

0000424a <__mspabi_slll_1>:
    424a:	0c 5c       	rla	r12		;
    424c:	0d 6d       	rlc	r13		;
    424e:	30 41       	ret			

00004250 <.L12>:
    4250:	3e 53       	add	#-1,	r14	;r3 As==11
    4252:	0c 5c       	rla	r12		;
    4254:	0d 6d       	rlc	r13		;

00004256 <__mspabi_slll>:
    4256:	0e 93       	cmp	#0,	r14	;r3 As==00
    4258:	fb 23       	jnz	$-8      	;abs 0x4250
    425a:	30 41       	ret			

0000425c <__mspabi_srai_15>:
    425c:	0c 11       	rra	r12		;

0000425e <__mspabi_srai_14>:
    425e:	0c 11       	rra	r12		;

00004260 <__mspabi_srai_13>:
    4260:	0c 11       	rra	r12		;

00004262 <__mspabi_srai_12>:
    4262:	0c 11       	rra	r12		;

00004264 <__mspabi_srai_11>:
    4264:	0c 11       	rra	r12		;

00004266 <__mspabi_srai_10>:
    4266:	0c 11       	rra	r12		;

00004268 <__mspabi_srai_9>:
    4268:	0c 11       	rra	r12		;

0000426a <__mspabi_srai_8>:
    426a:	0c 11       	rra	r12		;

0000426c <__mspabi_srai_7>:
    426c:	0c 11       	rra	r12		;

0000426e <__mspabi_srai_6>:
    426e:	0c 11       	rra	r12		;

00004270 <__mspabi_srai_5>:
    4270:	0c 11       	rra	r12		;

00004272 <__mspabi_srai_4>:
    4272:	0c 11       	rra	r12		;

00004274 <__mspabi_srai_3>:
    4274:	0c 11       	rra	r12		;

00004276 <__mspabi_srai_2>:
    4276:	0c 11       	rra	r12		;

00004278 <__mspabi_srai_1>:
    4278:	0c 11       	rra	r12		;
    427a:	30 41       	ret			

0000427c <.L11>:
    427c:	3d 53       	add	#-1,	r13	;r3 As==11
    427e:	0c 11       	rra	r12		;

00004280 <__mspabi_srai>:
    4280:	0d 93       	cmp	#0,	r13	;r3 As==00
    4282:	fc 23       	jnz	$-6      	;abs 0x427c
    4284:	30 41       	ret			

00004286 <__mspabi_sral_15>:
    4286:	0d 11       	rra	r13		;
    4288:	0c 10       	rrc	r12		;

0000428a <__mspabi_sral_14>:
    428a:	0d 11       	rra	r13		;
    428c:	0c 10       	rrc	r12		;

0000428e <__mspabi_sral_13>:
    428e:	0d 11       	rra	r13		;
    4290:	0c 10       	rrc	r12		;

00004292 <__mspabi_sral_12>:
    4292:	0d 11       	rra	r13		;
    4294:	0c 10       	rrc	r12		;

00004296 <__mspabi_sral_11>:
    4296:	0d 11       	rra	r13		;
    4298:	0c 10       	rrc	r12		;

0000429a <__mspabi_sral_10>:
    429a:	0d 11       	rra	r13		;
    429c:	0c 10       	rrc	r12		;

0000429e <__mspabi_sral_9>:
    429e:	0d 11       	rra	r13		;
    42a0:	0c 10       	rrc	r12		;

000042a2 <__mspabi_sral_8>:
    42a2:	0d 11       	rra	r13		;
    42a4:	0c 10       	rrc	r12		;

000042a6 <__mspabi_sral_7>:
    42a6:	0d 11       	rra	r13		;
    42a8:	0c 10       	rrc	r12		;

000042aa <__mspabi_sral_6>:
    42aa:	0d 11       	rra	r13		;
    42ac:	0c 10       	rrc	r12		;

000042ae <__mspabi_sral_5>:
    42ae:	0d 11       	rra	r13		;
    42b0:	0c 10       	rrc	r12		;

000042b2 <__mspabi_sral_4>:
    42b2:	0d 11       	rra	r13		;
    42b4:	0c 10       	rrc	r12		;

000042b6 <__mspabi_sral_3>:
    42b6:	0d 11       	rra	r13		;
    42b8:	0c 10       	rrc	r12		;

000042ba <__mspabi_sral_2>:
    42ba:	0d 11       	rra	r13		;
    42bc:	0c 10       	rrc	r12		;

000042be <__mspabi_sral_1>:
    42be:	0d 11       	rra	r13		;
    42c0:	0c 10       	rrc	r12		;
    42c2:	30 41       	ret			

000042c4 <.L12>:
    42c4:	3e 53       	add	#-1,	r14	;r3 As==11
    42c6:	0d 11       	rra	r13		;
    42c8:	0c 10       	rrc	r12		;

000042ca <__mspabi_sral>:
    42ca:	0e 93       	cmp	#0,	r14	;r3 As==00
    42cc:	fb 23       	jnz	$-8      	;abs 0x42c4
    42ce:	30 41       	ret			

000042d0 <_exit>:
    42d0:	ff 3f       	jmp	$+0      	;abs 0x42d0

000042d2 <memmove>:
    42d2:	0b 4c       	mov	r12,	r11	;

000042d4 <L0>:
    42d4:	0b 5e       	add	r14,	r11	;

000042d6 <.Loc.69.1>:
    42d6:	0d 9c       	cmp	r12,	r13	;
    42d8:	08 28       	jnc	$+18     	;abs 0x42ea

000042da <.L4>:
    42da:	0e 4c       	mov	r12,	r14	;

000042dc <.L3>:
    42dc:	0b 9e       	cmp	r14,	r11	;
    42de:	0f 24       	jz	$+32     	;abs 0x42fe

000042e0 <.LVL3>:
    42e0:	ee 4d 00 00 	mov.b	@r13,	0(r14)	;
    42e4:	1e 53       	inc	r14		;

000042e6 <.LVL4>:
    42e6:	1d 53       	inc	r13		;
    42e8:	f9 3f       	jmp	$-12     	;abs 0x42dc

000042ea <.L2>:
    42ea:	0f 4d       	mov	r13,	r15	;
    42ec:	0f 5e       	add	r14,	r15	;
    42ee:	0c 9f       	cmp	r15,	r12	;
    42f0:	f4 2f       	jc	$-22     	;abs 0x42da

000042f2 <.LVL6>:
    42f2:	0d 4f       	mov	r15,	r13	;

000042f4 <.LVL7>:
    42f4:	0e 8f       	sub	r15,	r14	;

000042f6 <.L5>:
    42f6:	0f 4d       	mov	r13,	r15	;
    42f8:	0f 5e       	add	r14,	r15	;
    42fa:	0f 93       	cmp	#0,	r15	;r3 As==00
    42fc:	01 20       	jnz	$+4      	;abs 0x4300

000042fe <.L9>:
    42fe:	30 41       	ret			

00004300 <.L6>:
    4300:	3b 53       	add	#-1,	r11	;r3 As==11
    4302:	3d 53       	add	#-1,	r13	;r3 As==11

00004304 <.LVL12>:
    4304:	eb 4d 00 00 	mov.b	@r13,	0(r11)	;
    4308:	f6 3f       	jmp	$-18     	;abs 0x42f6

0000430a <memset>:
    430a:	0f 4c       	mov	r12,	r15	;
    430c:	0e 5c       	add	r12,	r14	;

0000430e <L0>:
    430e:	0f 9e       	cmp	r14,	r15	;
    4310:	01 20       	jnz	$+4      	;abs 0x4314

00004312 <.Loc.104.1>:
    4312:	30 41       	ret			

00004314 <.L3>:
    4314:	cf 4d 00 00 	mov.b	r13,	0(r15)	;
    4318:	1f 53       	inc	r15		;

0000431a <.LVL4>:
    431a:	f9 3f       	jmp	$-12     	;abs 0x430e

0000431c <__do_global_ctors_aux>:
    431c:	0a 15       	pushm	#1,	r10	;16-bit words

0000431e <L0>:
    431e:	3a 40 04 40 	mov	#16388,	r10	;#0x4004

00004322 <.L2>:
    4322:	2c 4a       	mov	@r10,	r12	;
    4324:	3c 93       	cmp	#-1,	r12	;r3 As==11
    4326:	02 20       	jnz	$+6      	;abs 0x432c
    4328:	0a 17       	popm	#1,	r10	;16-bit words
    432a:	30 41       	ret			

0000432c <.L3>:
    432c:	8c 12       	call	r12		;
    432e:	3a 50 fe ff 	add	#65534,	r10	;#0xfffe
    4332:	f7 3f       	jmp	$-16     	;abs 0x4322

00004334 <__msp430_init>:
    4334:	b0 12 0e 41 	call	#16654		;#0x410e
    4338:	b0 12 1c 43 	call	#17180		;#0x431c

0000433c <L0>:
    433c:	b0 12 50 40 	call	#16464		;#0x4050

00004340 <.Loc.19.1>:
    4340:	b0 12 44 40 	call	#16452		;#0x4044

00004344 <.Loc.20.1>:
    4344:	30 41       	ret			

00004346 <__msp430_fini>:
    4346:	b0 12 5c 40 	call	#16476		;#0x405c

0000434a <L0>:
    434a:	b0 12 c4 40 	call	#16580		;#0x40c4

0000434e <L0>:
    434e:	30 41       	ret			

Disassembly of section .MSP430.attributes:

00000000 <.MSP430.attributes>:
   0:	41 16       	popm.a	#5,	r5	;20-bit words
   2:	00 00       	beq			
   4:	00 6d       	addc	r13,	r0	;
   6:	73 70       	.word	0x7073;	????
   8:	61 62       	addc.b	#4,	r1	;r2 As==10
   a:	69 00 01 0b 	mova	r0,	&592641	; 0x90b01
   e:	00 00       	beq			
  10:	00 04       	bra	@r4		;
  12:	02 06       	mova	@r6,	r2	;
  14:	01 08       	mova	@r8,	r1	;
  16:	01 00       	Address 0x0000000000000016 is out of bounds.
.word	0xffff;	????
