
test/test.out:     file format elf32-msp430


Disassembly of section __reset_vector:

0000fffe <__msp430_resetvec_hook>:
    fffe:	78 c1       	interrupt service routine at 0xc178

Disassembly of section .rodata:

0000c000 <__sf_fake_stderr-0x74>:
    c000:	41 72       	subc.b	r2,	r1	;
    c002:	69 74       	subc.b	@r4,	r9	;
    c004:	68 6d       	addc.b	@r13,	r8	;
    c006:	65 74       	subc.b	@r4,	r5	;
    c008:	69 63       	addc.b	#2,	r9	;r3 As==10
    c00a:	20 4f       	br	@r15		;
    c00c:	70 65       	addc.b	@r5+,	r0	;
    c00e:	72 61       	addc.b	@r1+,	r2	;
    c010:	74 69       	addc.b	@r9+,	r4	;
    c012:	6f 6e       	addc.b	@r14,	r15	;
    c014:	73 3a       	jl	$-792    	;abs 0xbcfc
    c016:	0a 00       	mova	@r0,	r10	;
    c018:	73 72       	.word	0x7273;	????
    c01a:	63 2f       	jc	$-312    	;abs 0xbee2
    c01c:	74 65       	addc.b	@r5+,	r4	;
    c01e:	73 74       	.word	0x7473;	????
    c020:	2e 63       	addc	#2,	r14	;r3 As==10
    c022:	00 4f       	br	r15		;
    c024:	4b 3a       	jl	$-872    	;abs 0xbcbc
    c026:	20 21       	jnz	$+578    	;abs 0xc268
    c028:	28 74       	subc	@r4,	r8	;
    c02a:	65 73       	subc.b	#2,	r5	;r3 As==10
    c02c:	74 7a       	subc.b	@r10+,	r4	;
    c02e:	65 72       	subc.b	#4,	r5	;r2 As==10
    c030:	6f 28       	jnc	$+224    	;abs 0xc110
    c032:	30 29       	jnc	$+610    	;abs 0xc294
    c034:	29 20       	jnz	$+84     	;abs 0xc088
    c036:	70 61       	addc.b	@r1+,	r0	;
    c038:	73 73       	.word	0x7373;	????
    c03a:	65 64       	addc.b	@r4,	r5	;
    c03c:	20 61       	addc	@r1,	r0	;
    c03e:	74 20       	jnz	$+234    	;abs 0xc128
    c040:	25 73       	subc	#2,	r5	;r3 As==10
    c042:	3a 25       	jz	$+630    	;abs 0xc2b8
    c044:	64 0a 00 46 	mova	r10,	&280064	; 0x44600
    c048:	41 49       	mov.b	r9,	r1	;
    c04a:	4c 3a       	jl	$-870    	;abs 0xbce4
    c04c:	20 21       	jnz	$+578    	;abs 0xc28e
    c04e:	28 74       	subc	@r4,	r8	;
    c050:	65 73       	subc.b	#2,	r5	;r3 As==10
    c052:	74 7a       	subc.b	@r10+,	r4	;
    c054:	65 72       	subc.b	#4,	r5	;r2 As==10
    c056:	6f 28       	jnc	$+224    	;abs 0xc136
    c058:	30 29       	jnc	$+610    	;abs 0xc2ba
    c05a:	29 20       	jnz	$+84     	;abs 0xc0ae
    c05c:	66 61       	addc.b	@r1,	r6	;
    c05e:	69 6c       	addc.b	@r12,	r9	;
    c060:	65 64       	addc.b	@r4,	r5	;
    c062:	20 61       	addc	@r1,	r0	;
    c064:	74 20       	jnz	$+234    	;abs 0xc14e
    c066:	25 73       	subc	#2,	r5	;r3 As==10
    c068:	3a 25       	jz	$+630    	;abs 0xc2de
    c06a:	64 0a 00 45 	mova	r10,	&279808	; 0x44500
    c06e:	58 49 54 0a 	mov.b	2644(r9),r8	;0x00a54
	...

0000c074 <__sf_fake_stderr>:
	...

0000c086 <__sf_fake_stdout>:
	...

0000c098 <__sf_fake_stdin>:
	...

0000c0aa <_global_impure_ptr>:
    c0aa:	04 02       	mova	@r2,	r4	;
    c0ac:	43 00       	rrcm.a	#1,	r3	;
    c0ae:	23 2d       	jc	$+584    	;abs 0xc2f6
    c0b0:	30 2b       	jnc	$-414    	;abs 0xbf12
    c0b2:	20 00 68 6c 	bra	&27752		;0x06c68
    c0b6:	4c 00       	rrcm.a	#1,	r12	;
    c0b8:	65 66       	addc.b	@r6,	r5	;
    c0ba:	67 45       	mov.b	@r5,	r7	;
    c0bc:	46 47       	mov.b	r7,	r6	;
    c0be:	00 30       	jn	$+2      	;abs 0xc0c0
    c0c0:	31 32       	jn	$-924    	;abs 0xbd24
    c0c2:	33 34       	jge	$+104    	;abs 0xc12a
    c0c4:	35 36       	jge	$-916    	;abs 0xbd30
    c0c6:	37 38       	jl	$+112    	;abs 0xc136
    c0c8:	39 41       	pop	r9		;
    c0ca:	42 43       	clr.b	r2		;
    c0cc:	44 45       	mov.b	r5,	r4	;
    c0ce:	46 00       	rrcm.a	#1,	r6	;
    c0d0:	30 31       	jn	$+610    	;abs 0xc332
    c0d2:	32 33       	jn	$-410    	;abs 0xbf38
    c0d4:	34 35       	jge	$+618    	;abs 0xc33e
    c0d6:	36 37       	jge	$-402    	;abs 0xbf44
    c0d8:	38 39       	jl	$+626    	;abs 0xc34a
    c0da:	61 62       	addc.b	#4,	r1	;r2 As==10
    c0dc:	63 64       	.word	0x6463;	????
    c0de:	65 66       	addc.b	@r6,	r5	;
    c0e0:	00 48       	br	r8		;
    c0e2:	65 61       	addc.b	@r1,	r5	;
    c0e4:	70 20       	jnz	$+226    	;abs 0xc1c6
    c0e6:	61 6e       	addc.b	@r14,	r1	;
    c0e8:	64 20       	jnz	$+202    	;abs 0xc1b2
    c0ea:	73 74       	.word	0x7473;	????
    c0ec:	61 63       	addc.b	#2,	r1	;r3 As==10
    c0ee:	6b 20       	jnz	$+216    	;abs 0xc1c6
    c0f0:	63 6f       	.word	0x6f63;	????
    c0f2:	6c 6c       	addc.b	@r12,	r12	;
    c0f4:	69 73       	subc.b	#2,	r9	;r3 As==10
    c0f6:	69 6f       	addc.b	@r15,	r9	;
    c0f8:	6e 0a 00 aa 	Address 0x000000000000c0fa is out of bounds.
mova	r10,	&983039	; 0xeffff

Disassembly of section .rodata2:

0000c0fc <__EH_FRAME_BEGIN__>:
    c0fc:	12 00       	mova	@r0+,	r2	;
    c0fe:	00 00       	beq			
    c100:	00 00       	beq			
    c102:	00 00       	beq			
    c104:	03 7a       	.word	0x7a03;	????
    c106:	52 00       	rrcm	#1,	r2	;
    c108:	01 7e       	subc	r14,	r1	;
    c10a:	00 01       	bra	@r1		;
    c10c:	03 0c       	mova	@r12,	r3	;
    c10e:	01 02       	mova	@r2,	r1	;
    c110:	80 01 54 00 	mova	#65620,	r0	;0x10054
    c114:	00 00       	beq			
    c116:	1a 00       	mova	@r0+,	r10	;
	...
    c120:	00 00       	beq			
    c122:	00 04       	bra	@r4		;
    c124:	00 00       	beq			
    c126:	00 00       	beq			
    c128:	0e 04       	mova	@r4,	r14	;
    c12a:	8a 02 04 00 	mova	#131076,r10	;0x20004
    c12e:	00 00       	beq			
    c130:	00 0e       	bra	@r14		;
    c132:	06 89       	sub	r9,	r6	;
    c134:	03 04       	mova	@r4,	r3	;
    c136:	00 00       	beq			
    c138:	00 00       	beq			
    c13a:	0e 08       	mova	@r8,	r14	;
    c13c:	88 04 04 00 	mova	#262148,r8	;0x40004
    c140:	00 00       	beq			
    c142:	00 0e       	bra	@r14		;
    c144:	0a 87       	sub	r7,	r10	;
    c146:	05 04       	mova	@r4,	r5	;
    c148:	00 00       	beq			
    c14a:	00 00       	beq			
    c14c:	0e 0c       	mova	@r12,	r14	;
    c14e:	86 06 04 00 	mova	#393220,r6	;0x60004
    c152:	00 00       	beq			
    c154:	00 0e       	bra	@r14		;
    c156:	0e 85       	sub	r5,	r14	;
    c158:	07 04       	mova	@r4,	r7	;
    c15a:	00 00       	beq			
    c15c:	00 00       	beq			
    c15e:	0e 10       	rrc	r14		;
    c160:	84 08 04 00 	mova	#-524284,r4	;0xfff80004
    c164:	00 00       	beq			
    c166:	00 0d       	bra	@r13		;
    c168:	04 00       	mova	@r0,	r4	;
	...

0000c16c <__FRAME_END__>:
    c16c:	00 00       	beq			
	...

0000c170 <__CTOR_LIST__>:
    c170:	ff ff       	.word	0xffff;	????

0000c172 <__CTOR_END__>:
	...

0000c174 <__DTOR_LIST__>:
    c174:	ff ff       	.word	0xffff;	????

0000c176 <__DTOR_END__>:
	...

Disassembly of section .text:

0000c178 <__crt0_start>:
    c178:	31 40 00 04 	mov	#1024,	r1	;#0x0400

0000c17c <__crt0_init_bss>:
    c17c:	3c 40 ee 02 	mov	#750,	r12	;#0x02ee

0000c180 <.Loc.74.1>:
    c180:	0d 43       	clr	r13		;

0000c182 <.Loc.75.1>:
    c182:	3e 40 18 00 	mov	#24,	r14	;#0x0018

0000c186 <.Loc.79.1>:
    c186:	b0 12 90 c7 	call	#51088		;#0xc790

0000c18a <__crt0_movedata>:
    c18a:	3c 40 00 02 	mov	#512,	r12	;#0x0200

0000c18e <.Loc.116.1>:
    c18e:	3d 40 b0 dd 	mov	#56752,	r13	;#0xddb0

0000c192 <.Loc.119.1>:
    c192:	0d 9c       	cmp	r12,	r13	;

0000c194 <.Loc.120.1>:
    c194:	04 24       	jz	$+10     	;abs 0xc19e

0000c196 <.Loc.122.1>:
    c196:	3e 40 ee 00 	mov	#238,	r14	;#0x00ee

0000c19a <.Loc.124.1>:
    c19a:	b0 12 04 d4 	call	#54276		;#0xd404

0000c19e <__crt0_call_init_then_main>:
    c19e:	b0 12 94 dd 	call	#56724		;#0xdd94

0000c1a2 <.Loc.196.1>:
    c1a2:	0c 43       	clr	r12		;

0000c1a4 <.Loc.197.1>:
    c1a4:	b0 12 6c c3 	call	#50028		;#0xc36c

0000c1a8 <__crt0_call_exit>:
    c1a8:	b0 12 b2 db 	call	#56242		;#0xdbb2

0000c1ac <_msp430_run_init_array>:
    c1ac:	34 40 fb c0 	mov	#49403,	r4	;#0xc0fb

0000c1b0 <.Loc.224.1>:
    c1b0:	35 40 fb c0 	mov	#49403,	r5	;#0xc0fb

0000c1b4 <.Loc.225.1>:
    c1b4:	26 43       	mov	#2,	r6	;r3 As==10

0000c1b6 <.Loc.226.1>:
    c1b6:	30 40 d8 c1 	br	#0xc1d8		;

0000c1ba <_msp430_run_preinit_array>:
    c1ba:	34 40 fb c0 	mov	#49403,	r4	;#0xc0fb

0000c1be <.Loc.232.1>:
    c1be:	35 40 fb c0 	mov	#49403,	r5	;#0xc0fb

0000c1c2 <.Loc.233.1>:
    c1c2:	26 43       	mov	#2,	r6	;r3 As==10

0000c1c4 <.Loc.234.1>:
    c1c4:	30 40 d8 c1 	br	#0xc1d8		;

0000c1c8 <_msp430_run_fini_array>:
    c1c8:	34 40 fb c0 	mov	#49403,	r4	;#0xc0fb

0000c1cc <.Loc.240.1>:
    c1cc:	35 40 fb c0 	mov	#49403,	r5	;#0xc0fb

0000c1d0 <.Loc.241.1>:
    c1d0:	36 40 fe ff 	mov	#65534,	r6	;#0xfffe

0000c1d4 <.Loc.242.1>:
    c1d4:	30 40 d8 c1 	br	#0xc1d8		;

0000c1d8 <_msp430_run_array>:
    c1d8:	05 94       	cmp	r4,	r5	;

0000c1da <.Loc.246.1>:
    c1da:	05 24       	jz	$+12     	;abs 0xc1e6

0000c1dc <.Loc.247.1>:
    c1dc:	27 44       	mov	@r4,	r7	;

0000c1de <.Loc.248.1>:
    c1de:	04 56       	add	r6,	r4	;

0000c1e0 <.Loc.249.1>:
    c1e0:	a7 12       	call	@r7		;

0000c1e2 <.Loc.250.1>:
    c1e2:	10 40 f4 ff 	br	0xfff4		;PC rel. 0xc1d8

0000c1e6 <_msp430_run_done>:
    c1e6:	30 41       	ret			

0000c1e8 <deregister_tm_clones>:
    c1e8:	3c 40 b0 dd 	mov	#56752,	r12	;#0xddb0
    c1ec:	3c 80 af dd 	sub	#56751,	r12	;#0xddaf
    c1f0:	6d 43       	mov.b	#2,	r13	;r3 As==10
    c1f2:	0d 9c       	cmp	r12,	r13	;
    c1f4:	07 2c       	jc	$+16     	;abs 0xc204
    c1f6:	3d 40 00 00 	mov	#0,	r13	;
    c1fa:	0d 93       	cmp	#0,	r13	;r3 As==00
    c1fc:	03 24       	jz	$+8      	;abs 0xc204
    c1fe:	3c 40 b0 dd 	mov	#56752,	r12	;#0xddb0
    c202:	8d 12       	call	r13		;

0000c204 <.L1>:
    c204:	30 41       	ret			

0000c206 <register_tm_clones>:
    c206:	0a 12       	push	r10		;
    c208:	3a 40 b0 dd 	mov	#56752,	r10	;#0xddb0
    c20c:	3a 80 b0 dd 	sub	#56752,	r10	;#0xddb0
    c210:	0a 11       	rra	r10		;
    c212:	0c 4a       	mov	r10,	r12	;
    c214:	b0 12 7a c4 	call	#50298		;#0xc47a
    c218:	0c 5a       	add	r10,	r12	;
    c21a:	0d 4c       	mov	r12,	r13	;
    c21c:	0d 11       	rra	r13		;
    c21e:	0d 93       	cmp	#0,	r13	;r3 As==00
    c220:	07 24       	jz	$+16     	;abs 0xc230
    c222:	3e 40 00 00 	mov	#0,	r14	;
    c226:	0e 93       	cmp	#0,	r14	;r3 As==00
    c228:	03 24       	jz	$+8      	;abs 0xc230
    c22a:	3c 40 b0 dd 	mov	#56752,	r12	;#0xddb0
    c22e:	8e 12       	call	r14		;

0000c230 <.L6>:
    c230:	3a 41       	pop	r10		;
    c232:	30 41       	ret			

0000c234 <__do_global_dtors_aux>:
    c234:	0a 12       	push	r10		;
    c236:	09 12       	push	r9		;
    c238:	c2 93 ee 02 	cmp.b	#0,	&0x02ee	;r3 As==00
    c23c:	17 20       	jnz	$+48     	;abs 0xc26c
    c23e:	3a 40 76 c1 	mov	#49526,	r10	;#0xc176
    c242:	3a 80 74 c1 	sub	#49524,	r10	;#0xc174
    c246:	0a 11       	rra	r10		;
    c248:	3a 53       	add	#-1,	r10	;r3 As==11
    c24a:	39 40 74 c1 	mov	#49524,	r9	;#0xc174

0000c24e <.L16>:
    c24e:	1c 42 f0 02 	mov	&0x02f0,r12	;0x02f0
    c252:	0c 9a       	cmp	r10,	r12	;
    c254:	0d 28       	jnc	$+28     	;abs 0xc270
    c256:	b0 12 e8 c1 	call	#49640		;#0xc1e8
    c25a:	3d 40 00 00 	mov	#0,	r13	;
    c25e:	0d 93       	cmp	#0,	r13	;r3 As==00
    c260:	03 24       	jz	$+8      	;abs 0xc268
    c262:	3c 40 fc c0 	mov	#49404,	r12	;#0xc0fc
    c266:	8d 12       	call	r13		;

0000c268 <.L18>:
    c268:	d2 43 ee 02 	mov.b	#1,	&0x02ee	;r3 As==01

0000c26c <.L14>:
    c26c:	30 40 8c c3 	br	#0xc38c		;

0000c270 <.L17>:
    c270:	1c 53       	inc	r12		;
    c272:	82 4c f0 02 	mov	r12,	&0x02f0	;
    c276:	0c 5c       	rla	r12		;
    c278:	0c 59       	add	r9,	r12	;
    c27a:	2c 4c       	mov	@r12,	r12	;
    c27c:	8c 12       	call	r12		;
    c27e:	30 40 4e c2 	br	#0xc24e		;

0000c282 <frame_dummy>:
    c282:	3e 40 00 00 	mov	#0,	r14	;
    c286:	0e 93       	cmp	#0,	r14	;r3 As==00
    c288:	05 24       	jz	$+12     	;abs 0xc294
    c28a:	3d 40 f2 02 	mov	#754,	r13	;#0x02f2
    c28e:	3c 40 fc c0 	mov	#49404,	r12	;#0xc0fc
    c292:	8e 12       	call	r14		;

0000c294 <.L24>:
    c294:	3c 40 00 02 	mov	#512,	r12	;#0x0200
    c298:	8c 93 00 00 	cmp	#0,	0(r12)	;r3 As==00
    c29c:	05 24       	jz	$+12     	;abs 0xc2a8
    c29e:	3d 40 00 00 	mov	#0,	r13	;
    c2a2:	0d 93       	cmp	#0,	r13	;r3 As==00
    c2a4:	01 24       	jz	$+4      	;abs 0xc2a8
    c2a6:	8d 12       	call	r13		;

0000c2a8 <.L25>:
    c2a8:	b0 12 06 c2 	call	#49670		;#0xc206
    c2ac:	30 41       	ret			

0000c2ae <testzero>:
    c2ae:	21 83       	decd	r1		;
    c2b0:	81 4c 00 00 	mov	r12,	0(r1)	;
    c2b4:	5c 43       	mov.b	#1,	r12	;r3 As==01
    c2b6:	4d 43       	clr.b	r13		;
    c2b8:	2d 91       	cmp	@r1,	r13	;
    c2ba:	01 38       	jl	$+4      	;abs 0xc2be
    c2bc:	4c 43       	clr.b	r12		;

0000c2be <.L2>:
    c2be:	3c f0 ff 00 	and	#255,	r12	;#0x00ff
    c2c2:	21 53       	incd	r1		;
    c2c4:	30 41       	ret			

0000c2c6 <testSimple>:
    c2c6:	31 80 14 00 	sub	#20,	r1	;#0x0014
    c2ca:	91 43 06 00 	mov	#1,	6(r1)	;r3 As==01
    c2ce:	a1 43 08 00 	mov	#2,	8(r1)	;r3 As==10
    c2d2:	b1 40 03 00 	mov	#3,	10(r1)	; 0x000a
    c2d6:	0a 00 
    c2d8:	91 43 10 00 	mov	#1,	16(r1)	;r3 As==01, 0x0010
    c2dc:	a1 43 0e 00 	mov	#2,	14(r1)	;r3 As==10, 0x000e
    c2e0:	a1 42 0c 00 	mov	#4,	12(r1)	;r2 As==10, 0x000c
    c2e4:	81 43 12 00 	mov	#0,	18(r1)	;r3 As==00, 0x0012
    c2e8:	b1 40 00 c0 	mov	#49152,	0(r1)	;#0xc000
    c2ec:	00 00 
    c2ee:	b0 12 2e c5 	call	#50478		;#0xc52e
    c2f2:	1c 41 10 00 	mov	16(r1),	r12	;0x00010
    c2f6:	1d 41 0e 00 	mov	14(r1),	r13	;0x0000e
    c2fa:	b0 12 b6 c3 	call	#50102		;#0xc3b6
    c2fe:	2c 92       	cmp	#4,	r12	;r2 As==10
    c300:	02 20       	jnz	$+6      	;abs 0xc306
    c302:	91 53 12 00 	inc	18(r1)		;

0000c306 <.L5>:
    c306:	1c 41 0c 00 	mov	12(r1),	r12	;0x0000c
    c30a:	1d 41 10 00 	mov	16(r1),	r13	;0x00010
    c30e:	b0 12 2a c4 	call	#50218		;#0xc42a
    c312:	2c 93       	cmp	#2,	r12	;r3 As==10
    c314:	02 20       	jnz	$+6      	;abs 0xc31a
    c316:	91 53 12 00 	inc	18(r1)		;

0000c31a <.L10>:
    c31a:	91 53 12 00 	inc	18(r1)		;
    c31e:	91 91 10 00 	cmp	16(r1),	14(r1)	;0x00010, 0x000e
    c322:	0e 00 
    c324:	02 38       	jl	$+6      	;abs 0xc32a
    c326:	91 53 12 00 	inc	18(r1)		;

0000c32a <.L7>:
    c32a:	4c 43       	clr.b	r12		;
    c32c:	b0 12 ae c2 	call	#49838		;#0xc2ae
    c330:	0c 93       	cmp	#0,	r12	;r3 As==00
    c332:	0d 20       	jnz	$+28     	;abs 0xc34e
    c334:	b1 40 2a 00 	mov	#42,	4(r1)	;#0x002a
    c338:	04 00 
    c33a:	b1 40 18 c0 	mov	#49176,	2(r1)	;#0xc018
    c33e:	02 00 
    c340:	b1 40 23 c0 	mov	#49187,	0(r1)	;#0xc023
    c344:	00 00 
    c346:	b0 12 2e c5 	call	#50478		;#0xc52e
    c34a:	30 40 64 c3 	br	#0xc364		;

0000c34e <.L8>:
    c34e:	b1 40 2a 00 	mov	#42,	4(r1)	;#0x002a
    c352:	04 00 
    c354:	b1 40 18 c0 	mov	#49176,	2(r1)	;#0xc018
    c358:	02 00 
    c35a:	b1 40 47 c0 	mov	#49223,	0(r1)	;#0xc047
    c35e:	00 00 
    c360:	b0 12 2e c5 	call	#50478		;#0xc52e

0000c364 <.L11>:
    c364:	03 43       	nop			
    c366:	31 50 14 00 	add	#20,	r1	;#0x0014
    c36a:	30 41       	ret			

0000c36c <main>:
    c36c:	21 83       	decd	r1		;
    c36e:	b0 12 c6 c2 	call	#49862		;#0xc2c6
    c372:	b1 40 6d c0 	mov	#49261,	0(r1)	;#0xc06d
    c376:	00 00 
    c378:	b0 12 2e c5 	call	#50478		;#0xc52e
    c37c:	4c 43       	clr.b	r12		;
    c37e:	21 53       	incd	r1		;
    c380:	30 41       	ret			

0000c382 <__mspabi_func_epilog_7>:
    c382:	34 41       	pop	r4		;

0000c384 <__mspabi_func_epilog_6>:
    c384:	35 41       	pop	r5		;

0000c386 <__mspabi_func_epilog_5>:
    c386:	36 41       	pop	r6		;

0000c388 <__mspabi_func_epilog_4>:
    c388:	37 41       	pop	r7		;

0000c38a <__mspabi_func_epilog_3>:
    c38a:	38 41       	pop	r8		;

0000c38c <__mspabi_func_epilog_2>:
    c38c:	39 41       	pop	r9		;

0000c38e <__mspabi_func_epilog_1>:
    c38e:	3a 41       	pop	r10		;
    c390:	30 41       	ret			

0000c392 <__mspabi_slli_15>:
    c392:	0c 5c       	rla	r12		;

0000c394 <__mspabi_slli_14>:
    c394:	0c 5c       	rla	r12		;

0000c396 <__mspabi_slli_13>:
    c396:	0c 5c       	rla	r12		;

0000c398 <__mspabi_slli_12>:
    c398:	0c 5c       	rla	r12		;

0000c39a <__mspabi_slli_11>:
    c39a:	0c 5c       	rla	r12		;

0000c39c <__mspabi_slli_10>:
    c39c:	0c 5c       	rla	r12		;

0000c39e <__mspabi_slli_9>:
    c39e:	0c 5c       	rla	r12		;

0000c3a0 <__mspabi_slli_8>:
    c3a0:	0c 5c       	rla	r12		;

0000c3a2 <__mspabi_slli_7>:
    c3a2:	0c 5c       	rla	r12		;

0000c3a4 <__mspabi_slli_6>:
    c3a4:	0c 5c       	rla	r12		;

0000c3a6 <__mspabi_slli_5>:
    c3a6:	0c 5c       	rla	r12		;

0000c3a8 <__mspabi_slli_4>:
    c3a8:	0c 5c       	rla	r12		;

0000c3aa <__mspabi_slli_3>:
    c3aa:	0c 5c       	rla	r12		;

0000c3ac <__mspabi_slli_2>:
    c3ac:	0c 5c       	rla	r12		;

0000c3ae <__mspabi_slli_1>:
    c3ae:	0c 5c       	rla	r12		;
    c3b0:	30 41       	ret			

0000c3b2 <.L11>:
    c3b2:	3d 53       	add	#-1,	r13	;r3 As==11
    c3b4:	0c 5c       	rla	r12		;

0000c3b6 <__mspabi_slli>:
    c3b6:	0d 93       	cmp	#0,	r13	;r3 As==00
    c3b8:	fc 23       	jnz	$-6      	;abs 0xc3b2
    c3ba:	30 41       	ret			

0000c3bc <__mspabi_slll_15>:
    c3bc:	0c 5c       	rla	r12		;
    c3be:	0d 6d       	rlc	r13		;

0000c3c0 <__mspabi_slll_14>:
    c3c0:	0c 5c       	rla	r12		;
    c3c2:	0d 6d       	rlc	r13		;

0000c3c4 <__mspabi_slll_13>:
    c3c4:	0c 5c       	rla	r12		;
    c3c6:	0d 6d       	rlc	r13		;

0000c3c8 <__mspabi_slll_12>:
    c3c8:	0c 5c       	rla	r12		;
    c3ca:	0d 6d       	rlc	r13		;

0000c3cc <__mspabi_slll_11>:
    c3cc:	0c 5c       	rla	r12		;
    c3ce:	0d 6d       	rlc	r13		;

0000c3d0 <__mspabi_slll_10>:
    c3d0:	0c 5c       	rla	r12		;
    c3d2:	0d 6d       	rlc	r13		;

0000c3d4 <__mspabi_slll_9>:
    c3d4:	0c 5c       	rla	r12		;
    c3d6:	0d 6d       	rlc	r13		;

0000c3d8 <__mspabi_slll_8>:
    c3d8:	0c 5c       	rla	r12		;
    c3da:	0d 6d       	rlc	r13		;

0000c3dc <__mspabi_slll_7>:
    c3dc:	0c 5c       	rla	r12		;
    c3de:	0d 6d       	rlc	r13		;

0000c3e0 <__mspabi_slll_6>:
    c3e0:	0c 5c       	rla	r12		;
    c3e2:	0d 6d       	rlc	r13		;

0000c3e4 <__mspabi_slll_5>:
    c3e4:	0c 5c       	rla	r12		;
    c3e6:	0d 6d       	rlc	r13		;

0000c3e8 <__mspabi_slll_4>:
    c3e8:	0c 5c       	rla	r12		;
    c3ea:	0d 6d       	rlc	r13		;

0000c3ec <__mspabi_slll_3>:
    c3ec:	0c 5c       	rla	r12		;
    c3ee:	0d 6d       	rlc	r13		;

0000c3f0 <__mspabi_slll_2>:
    c3f0:	0c 5c       	rla	r12		;
    c3f2:	0d 6d       	rlc	r13		;

0000c3f4 <__mspabi_slll_1>:
    c3f4:	0c 5c       	rla	r12		;
    c3f6:	0d 6d       	rlc	r13		;
    c3f8:	30 41       	ret			

0000c3fa <.L12>:
    c3fa:	3e 53       	add	#-1,	r14	;r3 As==11
    c3fc:	0c 5c       	rla	r12		;
    c3fe:	0d 6d       	rlc	r13		;

0000c400 <__mspabi_slll>:
    c400:	0e 93       	cmp	#0,	r14	;r3 As==00
    c402:	fb 23       	jnz	$-8      	;abs 0xc3fa
    c404:	30 41       	ret			

0000c406 <__mspabi_srai_15>:
    c406:	0c 11       	rra	r12		;

0000c408 <__mspabi_srai_14>:
    c408:	0c 11       	rra	r12		;

0000c40a <__mspabi_srai_13>:
    c40a:	0c 11       	rra	r12		;

0000c40c <__mspabi_srai_12>:
    c40c:	0c 11       	rra	r12		;

0000c40e <__mspabi_srai_11>:
    c40e:	0c 11       	rra	r12		;

0000c410 <__mspabi_srai_10>:
    c410:	0c 11       	rra	r12		;

0000c412 <__mspabi_srai_9>:
    c412:	0c 11       	rra	r12		;

0000c414 <__mspabi_srai_8>:
    c414:	0c 11       	rra	r12		;

0000c416 <__mspabi_srai_7>:
    c416:	0c 11       	rra	r12		;

0000c418 <__mspabi_srai_6>:
    c418:	0c 11       	rra	r12		;

0000c41a <__mspabi_srai_5>:
    c41a:	0c 11       	rra	r12		;

0000c41c <__mspabi_srai_4>:
    c41c:	0c 11       	rra	r12		;

0000c41e <__mspabi_srai_3>:
    c41e:	0c 11       	rra	r12		;

0000c420 <__mspabi_srai_2>:
    c420:	0c 11       	rra	r12		;

0000c422 <__mspabi_srai_1>:
    c422:	0c 11       	rra	r12		;
    c424:	30 41       	ret			

0000c426 <.L11>:
    c426:	3d 53       	add	#-1,	r13	;r3 As==11
    c428:	0c 11       	rra	r12		;

0000c42a <__mspabi_srai>:
    c42a:	0d 93       	cmp	#0,	r13	;r3 As==00
    c42c:	fc 23       	jnz	$-6      	;abs 0xc426
    c42e:	30 41       	ret			

0000c430 <__mspabi_sral_15>:
    c430:	0d 11       	rra	r13		;
    c432:	0c 10       	rrc	r12		;

0000c434 <__mspabi_sral_14>:
    c434:	0d 11       	rra	r13		;
    c436:	0c 10       	rrc	r12		;

0000c438 <__mspabi_sral_13>:
    c438:	0d 11       	rra	r13		;
    c43a:	0c 10       	rrc	r12		;

0000c43c <__mspabi_sral_12>:
    c43c:	0d 11       	rra	r13		;
    c43e:	0c 10       	rrc	r12		;

0000c440 <__mspabi_sral_11>:
    c440:	0d 11       	rra	r13		;
    c442:	0c 10       	rrc	r12		;

0000c444 <__mspabi_sral_10>:
    c444:	0d 11       	rra	r13		;
    c446:	0c 10       	rrc	r12		;

0000c448 <__mspabi_sral_9>:
    c448:	0d 11       	rra	r13		;
    c44a:	0c 10       	rrc	r12		;

0000c44c <__mspabi_sral_8>:
    c44c:	0d 11       	rra	r13		;
    c44e:	0c 10       	rrc	r12		;

0000c450 <__mspabi_sral_7>:
    c450:	0d 11       	rra	r13		;
    c452:	0c 10       	rrc	r12		;

0000c454 <__mspabi_sral_6>:
    c454:	0d 11       	rra	r13		;
    c456:	0c 10       	rrc	r12		;

0000c458 <__mspabi_sral_5>:
    c458:	0d 11       	rra	r13		;
    c45a:	0c 10       	rrc	r12		;

0000c45c <__mspabi_sral_4>:
    c45c:	0d 11       	rra	r13		;
    c45e:	0c 10       	rrc	r12		;

0000c460 <__mspabi_sral_3>:
    c460:	0d 11       	rra	r13		;
    c462:	0c 10       	rrc	r12		;

0000c464 <__mspabi_sral_2>:
    c464:	0d 11       	rra	r13		;
    c466:	0c 10       	rrc	r12		;

0000c468 <__mspabi_sral_1>:
    c468:	0d 11       	rra	r13		;
    c46a:	0c 10       	rrc	r12		;
    c46c:	30 41       	ret			

0000c46e <.L12>:
    c46e:	3e 53       	add	#-1,	r14	;r3 As==11
    c470:	0d 11       	rra	r13		;
    c472:	0c 10       	rrc	r12		;

0000c474 <__mspabi_sral>:
    c474:	0e 93       	cmp	#0,	r14	;r3 As==00
    c476:	fb 23       	jnz	$-8      	;abs 0xc46e
    c478:	30 41       	ret			

0000c47a <__mspabi_srli_15>:
    c47a:	12 c3       	clrc			
    c47c:	0c 10       	rrc	r12		;

0000c47e <__mspabi_srli_14>:
    c47e:	12 c3       	clrc			
    c480:	0c 10       	rrc	r12		;

0000c482 <__mspabi_srli_13>:
    c482:	12 c3       	clrc			
    c484:	0c 10       	rrc	r12		;

0000c486 <__mspabi_srli_12>:
    c486:	12 c3       	clrc			
    c488:	0c 10       	rrc	r12		;

0000c48a <__mspabi_srli_11>:
    c48a:	12 c3       	clrc			
    c48c:	0c 10       	rrc	r12		;

0000c48e <__mspabi_srli_10>:
    c48e:	12 c3       	clrc			
    c490:	0c 10       	rrc	r12		;

0000c492 <__mspabi_srli_9>:
    c492:	12 c3       	clrc			
    c494:	0c 10       	rrc	r12		;

0000c496 <__mspabi_srli_8>:
    c496:	12 c3       	clrc			
    c498:	0c 10       	rrc	r12		;

0000c49a <__mspabi_srli_7>:
    c49a:	12 c3       	clrc			
    c49c:	0c 10       	rrc	r12		;

0000c49e <__mspabi_srli_6>:
    c49e:	12 c3       	clrc			
    c4a0:	0c 10       	rrc	r12		;

0000c4a2 <__mspabi_srli_5>:
    c4a2:	12 c3       	clrc			
    c4a4:	0c 10       	rrc	r12		;

0000c4a6 <__mspabi_srli_4>:
    c4a6:	12 c3       	clrc			
    c4a8:	0c 10       	rrc	r12		;

0000c4aa <__mspabi_srli_3>:
    c4aa:	12 c3       	clrc			
    c4ac:	0c 10       	rrc	r12		;

0000c4ae <__mspabi_srli_2>:
    c4ae:	12 c3       	clrc			
    c4b0:	0c 10       	rrc	r12		;

0000c4b2 <__mspabi_srli_1>:
    c4b2:	12 c3       	clrc			
    c4b4:	0c 10       	rrc	r12		;
    c4b6:	30 41       	ret			

0000c4b8 <.L11>:
    c4b8:	3d 53       	add	#-1,	r13	;r3 As==11
    c4ba:	12 c3       	clrc			
    c4bc:	0c 10       	rrc	r12		;

0000c4be <__mspabi_srli>:
    c4be:	0d 93       	cmp	#0,	r13	;r3 As==00
    c4c0:	fb 23       	jnz	$-8      	;abs 0xc4b8
    c4c2:	30 41       	ret			

0000c4c4 <__mspabi_srll_15>:
    c4c4:	12 c3       	clrc			
    c4c6:	0d 10       	rrc	r13		;
    c4c8:	0c 10       	rrc	r12		;

0000c4ca <__mspabi_srll_14>:
    c4ca:	12 c3       	clrc			
    c4cc:	0d 10       	rrc	r13		;
    c4ce:	0c 10       	rrc	r12		;

0000c4d0 <__mspabi_srll_13>:
    c4d0:	12 c3       	clrc			
    c4d2:	0d 10       	rrc	r13		;
    c4d4:	0c 10       	rrc	r12		;

0000c4d6 <__mspabi_srll_12>:
    c4d6:	12 c3       	clrc			
    c4d8:	0d 10       	rrc	r13		;
    c4da:	0c 10       	rrc	r12		;

0000c4dc <__mspabi_srll_11>:
    c4dc:	12 c3       	clrc			
    c4de:	0d 10       	rrc	r13		;
    c4e0:	0c 10       	rrc	r12		;

0000c4e2 <__mspabi_srll_10>:
    c4e2:	12 c3       	clrc			
    c4e4:	0d 10       	rrc	r13		;
    c4e6:	0c 10       	rrc	r12		;

0000c4e8 <__mspabi_srll_9>:
    c4e8:	12 c3       	clrc			
    c4ea:	0d 10       	rrc	r13		;
    c4ec:	0c 10       	rrc	r12		;

0000c4ee <__mspabi_srll_8>:
    c4ee:	12 c3       	clrc			
    c4f0:	0d 10       	rrc	r13		;
    c4f2:	0c 10       	rrc	r12		;

0000c4f4 <__mspabi_srll_7>:
    c4f4:	12 c3       	clrc			
    c4f6:	0d 10       	rrc	r13		;
    c4f8:	0c 10       	rrc	r12		;

0000c4fa <__mspabi_srll_6>:
    c4fa:	12 c3       	clrc			
    c4fc:	0d 10       	rrc	r13		;
    c4fe:	0c 10       	rrc	r12		;

0000c500 <__mspabi_srll_5>:
    c500:	12 c3       	clrc			
    c502:	0d 10       	rrc	r13		;
    c504:	0c 10       	rrc	r12		;

0000c506 <__mspabi_srll_4>:
    c506:	12 c3       	clrc			
    c508:	0d 10       	rrc	r13		;
    c50a:	0c 10       	rrc	r12		;

0000c50c <__mspabi_srll_3>:
    c50c:	12 c3       	clrc			
    c50e:	0d 10       	rrc	r13		;
    c510:	0c 10       	rrc	r12		;

0000c512 <__mspabi_srll_2>:
    c512:	12 c3       	clrc			
    c514:	0d 10       	rrc	r13		;
    c516:	0c 10       	rrc	r12		;

0000c518 <__mspabi_srll_1>:
    c518:	12 c3       	clrc			
    c51a:	0d 10       	rrc	r13		;
    c51c:	0c 10       	rrc	r12		;
    c51e:	30 41       	ret			

0000c520 <.L12>:
    c520:	3e 53       	add	#-1,	r14	;r3 As==11
    c522:	12 c3       	clrc			
    c524:	0d 10       	rrc	r13		;
    c526:	0c 10       	rrc	r12		;

0000c528 <__mspabi_srll>:
    c528:	0e 93       	cmp	#0,	r14	;r3 As==00
    c52a:	fa 23       	jnz	$-10     	;abs 0xc520
    c52c:	30 41       	ret			

0000c52e <iprintf>:
    c52e:	0a 12       	push	r10		;

0000c530 <.LCFI1>:
    c530:	1a 42 02 02 	mov	&0x0202,r10	;0x0202

0000c534 <.LVL5>:
    c534:	0a 93       	cmp	#0,	r10	;r3 As==00
    c536:	06 24       	jz	$+14     	;abs 0xc544

0000c538 <.Loc.56.1>:
    c538:	8a 93 0c 00 	cmp	#0,	12(r10)	;r3 As==00, 0x000c
    c53c:	03 20       	jnz	$+8      	;abs 0xc544

0000c53e <.Loc.56.1>:
    c53e:	0c 4a       	mov	r10,	r12	;
    c540:	b0 12 08 c6 	call	#50696		;#0xc608

0000c544 <.L7>:
    c544:	0f 41       	mov	r1,	r15	;
    c546:	3f 50 06 00 	add	#6,	r15	;
    c54a:	1e 41 04 00 	mov	4(r1),	r14	;
    c54e:	1d 4a 04 00 	mov	4(r10),	r13	;
    c552:	0c 4a       	mov	r10,	r12	;
    c554:	b0 12 48 c9 	call	#51528		;#0xc948

0000c558 <.LVL7>:
    c558:	3a 41       	pop	r10		;

0000c55a <.LVL8>:
    c55a:	30 41       	ret			

0000c55c <_cleanup_r>:
    c55c:	3d 40 fa ce 	mov	#52986,	r13	;#0xcefa
    c560:	b0 12 36 c7 	call	#50998		;#0xc736

0000c564 <.LVL4>:
    c564:	30 41       	ret			

0000c566 <std.isra.0>:
    c566:	0a 12       	push	r10		;

0000c568 <.LCFI0>:
    c568:	0a 4c       	mov	r12,	r10	;

0000c56a <.Loc.49.1>:
    c56a:	8c 43 00 00 	mov	#0,	0(r12)	;r3 As==00

0000c56e <.Loc.50.1>:
    c56e:	8c 43 02 00 	mov	#0,	2(r12)	;r3 As==00

0000c572 <.Loc.51.1>:
    c572:	8c 43 04 00 	mov	#0,	4(r12)	;r3 As==00

0000c576 <.Loc.52.1>:
    c576:	8c 4d 06 00 	mov	r13,	6(r12)	;

0000c57a <.Loc.53.1>:
    c57a:	8c 43 3a 00 	mov	#0,	58(r12)	;r3 As==00, 0x003a

0000c57e <.Loc.54.1>:
    c57e:	8c 4e 08 00 	mov	r14,	8(r12)	;

0000c582 <.Loc.55.1>:
    c582:	8c 43 0a 00 	mov	#0,	10(r12)	;r3 As==00, 0x000a

0000c586 <.Loc.56.1>:
    c586:	8c 43 0c 00 	mov	#0,	12(r12)	;r3 As==00, 0x000c

0000c58a <.Loc.57.1>:
    c58a:	8c 43 0e 00 	mov	#0,	14(r12)	;r3 As==00, 0x000e

0000c58e <.Loc.58.1>:
    c58e:	7e 40 06 00 	mov.b	#6,	r14	;

0000c592 <.LVL7>:
    c592:	4d 43       	clr.b	r13		;

0000c594 <.LVL8>:
    c594:	3c 50 34 00 	add	#52,	r12	;#0x0034

0000c598 <.LVL9>:
    c598:	b0 12 90 c7 	call	#51088		;#0xc790

0000c59c <.LVL10>:
    c59c:	8a 4a 12 00 	mov	r10,	18(r10)	; 0x0012

0000c5a0 <.Loc.60.1>:
    c5a0:	ba 40 12 cc 	mov	#52242,	20(r10)	;#0xcc12, 0x0014
    c5a4:	14 00 

0000c5a6 <.Loc.62.1>:
    c5a6:	ba 40 52 cc 	mov	#52306,	22(r10)	;#0xcc52, 0x0016
    c5aa:	16 00 

0000c5ac <.Loc.68.1>:
    c5ac:	ba 40 94 cc 	mov	#52372,	24(r10)	;#0xcc94, 0x0018
    c5b0:	18 00 

0000c5b2 <.Loc.70.1>:
    c5b2:	ba 40 ce cc 	mov	#52430,	26(r10)	;#0xccce, 0x001a
    c5b6:	1a 00 

0000c5b8 <.Loc.86.1>:
    c5b8:	3a 41       	pop	r10		;

0000c5ba <.LVL11>:
    c5ba:	30 41       	ret			

0000c5bc <__sfmoreglue>:
    c5bc:	0a 12       	push	r10		;

0000c5be <.LCFI1>:
    c5be:	09 12       	push	r9		;

0000c5c0 <.LCFI2>:
    c5c0:	08 12       	push	r8		;

0000c5c2 <.LCFI3>:
    c5c2:	0a 4c       	mov	r12,	r10	;
    c5c4:	08 4d       	mov	r13,	r8	;

0000c5c6 <.Loc.101.1>:
    c5c6:	7d 40 3c 00 	mov.b	#60,	r13	;#0x003c

0000c5ca <.LVL13>:
    c5ca:	0c 48       	mov	r8,	r12	;

0000c5cc <.LVL14>:
    c5cc:	3c 53       	add	#-1,	r12	;r3 As==11
    c5ce:	b0 12 b8 dc 	call	#56504		;#0xdcb8
    c5d2:	09 4c       	mov	r12,	r9	;

0000c5d4 <.Loc.100.1>:
    c5d4:	0d 4c       	mov	r12,	r13	;
    c5d6:	3d 50 42 00 	add	#66,	r13	;#0x0042
    c5da:	0c 4a       	mov	r10,	r12	;
    c5dc:	b0 12 a4 c7 	call	#51108		;#0xc7a4

0000c5e0 <.LVL16>:
    c5e0:	0a 4c       	mov	r12,	r10	;

0000c5e2 <.LVL17>:
    c5e2:	0c 93       	cmp	#0,	r12	;r3 As==00
    c5e4:	0e 24       	jz	$+30     	;abs 0xc602

0000c5e6 <.Loc.104.1>:
    c5e6:	8c 43 00 00 	mov	#0,	0(r12)	;r3 As==00

0000c5ea <.Loc.105.1>:
    c5ea:	8c 48 02 00 	mov	r8,	2(r12)	;

0000c5ee <.Loc.106.1>:
    c5ee:	3c 50 06 00 	add	#6,	r12	;
    c5f2:	8a 4c 04 00 	mov	r12,	4(r10)	;

0000c5f6 <.Loc.107.1>:
    c5f6:	0e 49       	mov	r9,	r14	;
    c5f8:	3e 50 3c 00 	add	#60,	r14	;#0x003c
    c5fc:	4d 43       	clr.b	r13		;
    c5fe:	b0 12 90 c7 	call	#51088		;#0xc790

0000c602 <.L6>:
    c602:	0c 4a       	mov	r10,	r12	;
    c604:	30 40 8a c3 	br	#0xc38a		;

0000c608 <__sinit>:
    c608:	0a 12       	push	r10		;

0000c60a <.LCFI4>:
    c60a:	09 12       	push	r9		;

0000c60c <.LCFI5>:
    c60c:	0a 4c       	mov	r12,	r10	;

0000c60e <.Loc.213.1>:
    c60e:	8c 93 0c 00 	cmp	#0,	12(r12)	;r3 As==00, 0x000c
    c612:	31 20       	jnz	$+100    	;abs 0xc676

0000c614 <.LBB20>:
    c614:	bc 40 5c c5 	mov	#50524,	20(r12)	;#0xc55c, 0x0014
    c618:	14 00 

0000c61a <.Loc.222.1>:
    c61a:	8c 43 6c 00 	mov	#0,	108(r12);r3 As==00, 0x006c

0000c61e <.Loc.227.1>:
    c61e:	8c 43 6e 00 	mov	#0,	110(r12);r3 As==00, 0x006e

0000c622 <.Loc.228.1>:
    c622:	8c 43 70 00 	mov	#0,	112(r12);r3 As==00, 0x0070

0000c626 <.Loc.232.1>:
    c626:	1c 92 aa c0 	cmp	&0xc0aa,r12	;0xc0aa
    c62a:	02 20       	jnz	$+6      	;abs 0xc630

0000c62c <.Loc.233.1>:
    c62c:	9c 43 0c 00 	mov	#1,	12(r12)	;r3 As==01, 0x000c

0000c630 <.L13>:
    c630:	39 40 7a c6 	mov	#50810,	r9	;#0xc67a
    c634:	0c 4a       	mov	r10,	r12	;

0000c636 <.LVL22>:
    c636:	89 12       	call	r9		;

0000c638 <.LVL23>:
    c638:	8a 4c 02 00 	mov	r12,	2(r10)	;

0000c63c <.Loc.235.1>:
    c63c:	0c 4a       	mov	r10,	r12	;
    c63e:	89 12       	call	r9		;

0000c640 <.LVL24>:
    c640:	8a 4c 04 00 	mov	r12,	4(r10)	;

0000c644 <.Loc.236.1>:
    c644:	0c 4a       	mov	r10,	r12	;
    c646:	89 12       	call	r9		;

0000c648 <.LVL25>:
    c648:	8a 4c 06 00 	mov	r12,	6(r10)	;

0000c64c <.Loc.239.1>:
    c64c:	39 40 66 c5 	mov	#50534,	r9	;#0xc566
    c650:	4e 43       	clr.b	r14		;
    c652:	6d 42       	mov.b	#4,	r13	;r2 As==10
    c654:	1c 4a 02 00 	mov	2(r10),	r12	;
    c658:	89 12       	call	r9		;

0000c65a <.LVL26>:
    c65a:	5e 43       	mov.b	#1,	r14	;r3 As==01
    c65c:	7d 40 09 00 	mov.b	#9,	r13	;
    c660:	1c 4a 04 00 	mov	4(r10),	r12	;
    c664:	89 12       	call	r9		;

0000c666 <.LVL27>:
    c666:	6e 43       	mov.b	#2,	r14	;r3 As==10
    c668:	7d 40 12 00 	mov.b	#18,	r13	;#0x0012
    c66c:	1c 4a 06 00 	mov	6(r10),	r12	;
    c670:	89 12       	call	r9		;

0000c672 <.LVL28>:
    c672:	9a 43 0c 00 	mov	#1,	12(r10)	;r3 As==01, 0x000c

0000c676 <.L11>:
    c676:	30 40 8c c3 	br	#0xc38c		;

0000c67a <__sfp>:
    c67a:	0a 12       	push	r10		;

0000c67c <.LCFI6>:
    c67c:	09 12       	push	r9		;

0000c67e <.LCFI7>:
    c67e:	08 12       	push	r8		;

0000c680 <.LCFI8>:
    c680:	07 12       	push	r7		;

0000c682 <.LCFI9>:
    c682:	06 12       	push	r6		;

0000c684 <.LCFI10>:
    c684:	08 4c       	mov	r12,	r8	;

0000c686 <.Loc.125.1>:
    c686:	19 42 aa c0 	mov	&0xc0aa,r9	;0xc0aa
    c68a:	89 93 0c 00 	cmp	#0,	12(r9)	;r3 As==00, 0x000c
    c68e:	03 20       	jnz	$+8      	;abs 0xc696

0000c690 <.Loc.126.1>:
    c690:	0c 49       	mov	r9,	r12	;

0000c692 <.LVL31>:
    c692:	b0 12 08 c6 	call	#50696		;#0xc608

0000c696 <.L15>:
    c696:	39 50 6c 00 	add	#108,	r9	;#0x006c

0000c69a <.Loc.133.1>:
    c69a:	37 40 bc c5 	mov	#50620,	r7	;#0xc5bc
    c69e:	66 42       	mov.b	#4,	r6	;r2 As==10

0000c6a0 <.L20>:
    c6a0:	1d 49 02 00 	mov	2(r9),	r13	;

0000c6a4 <.LVL35>:
    c6a4:	1c 49 04 00 	mov	4(r9),	r12	;
    c6a8:	3c 50 06 00 	add	#6,	r12	;

0000c6ac <.L16>:
    c6ac:	0a 4c       	mov	r12,	r10	;
    c6ae:	3a 50 fa ff 	add	#65530,	r10	;#0xfffa

0000c6b2 <.LVL37>:
    c6b2:	3d 53       	add	#-1,	r13	;r3 As==11
    c6b4:	0d 93       	cmp	#0,	r13	;r3 As==00
    c6b6:	06 34       	jge	$+14     	;abs 0xc6c4

0000c6b8 <.Loc.132.1>:
    c6b8:	89 93 00 00 	cmp	#0,	0(r9)	;r3 As==00
    c6bc:	2c 24       	jz	$+90     	;abs 0xc716

0000c6be <.L21>:
    c6be:	29 49       	mov	@r9,	r9	;

0000c6c0 <.Loc.129.1>:
    c6c0:	30 40 a0 c6 	br	#0xc6a0		;

0000c6c4 <.L18>:
    c6c4:	3c 50 3c 00 	add	#60,	r12	;#0x003c

0000c6c8 <.Loc.130.1>:
    c6c8:	8c 93 c4 ff 	cmp	#0,	-60(r12);r3 As==00, 0xffc4
    c6cc:	ef 23       	jnz	$-32     	;abs 0xc6ac

0000c6ce <.L17>:
    c6ce:	ba 43 08 00 	mov	#-1,	8(r10)	;r3 As==11

0000c6d2 <.Loc.142.1>:
    c6d2:	9a 43 06 00 	mov	#1,	6(r10)	;r3 As==01

0000c6d6 <.Loc.143.1>:
    c6d6:	8a 43 3a 00 	mov	#0,	58(r10)	;r3 As==00, 0x003a

0000c6da <.Loc.149.1>:
    c6da:	8a 43 00 00 	mov	#0,	0(r10)	;r3 As==00

0000c6de <.Loc.150.1>:
    c6de:	8a 43 04 00 	mov	#0,	4(r10)	;r3 As==00

0000c6e2 <.Loc.151.1>:
    c6e2:	8a 43 02 00 	mov	#0,	2(r10)	;r3 As==00

0000c6e6 <.Loc.152.1>:
    c6e6:	8a 43 0a 00 	mov	#0,	10(r10)	;r3 As==00, 0x000a

0000c6ea <.Loc.153.1>:
    c6ea:	8a 43 0c 00 	mov	#0,	12(r10)	;r3 As==00, 0x000c

0000c6ee <.Loc.154.1>:
    c6ee:	8a 43 0e 00 	mov	#0,	14(r10)	;r3 As==00, 0x000e

0000c6f2 <.Loc.155.1>:
    c6f2:	7e 40 06 00 	mov.b	#6,	r14	;
    c6f6:	4d 43       	clr.b	r13		;

0000c6f8 <.LVL42>:
    c6f8:	0c 4a       	mov	r10,	r12	;
    c6fa:	3c 50 34 00 	add	#52,	r12	;#0x0034
    c6fe:	b0 12 90 c7 	call	#51088		;#0xc790

0000c702 <.LVL43>:
    c702:	8a 43 1c 00 	mov	#0,	28(r10)	;r3 As==00, 0x001c

0000c706 <.Loc.158.1>:
    c706:	8a 43 1e 00 	mov	#0,	30(r10)	;r3 As==00, 0x001e

0000c70a <.Loc.159.1>:
    c70a:	8a 43 28 00 	mov	#0,	40(r10)	;r3 As==00, 0x0028

0000c70e <.Loc.160.1>:
    c70e:	8a 43 2a 00 	mov	#0,	42(r10)	;r3 As==00, 0x002a

0000c712 <.Loc.162.1>:
    c712:	30 40 2c c7 	br	#0xc72c		;

0000c716 <.L19>:
    c716:	0d 46       	mov	r6,	r13	;

0000c718 <.LVL45>:
    c718:	0c 48       	mov	r8,	r12	;
    c71a:	87 12       	call	r7		;

0000c71c <.LVL46>:
    c71c:	89 4c 00 00 	mov	r12,	0(r9)	;

0000c720 <.Loc.132.1>:
    c720:	0c 93       	cmp	#0,	r12	;r3 As==00
    c722:	cd 23       	jnz	$-100    	;abs 0xc6be

0000c724 <.Loc.137.1>:
    c724:	b8 40 0c 00 	mov	#12,	0(r8)	;#0x000c
    c728:	00 00 

0000c72a <.Loc.138.1>:
    c72a:	0a 4c       	mov	r12,	r10	;

0000c72c <.L14>:
    c72c:	0c 4a       	mov	r10,	r12	;
    c72e:	30 40 86 c3 	br	#0xc386		;

0000c732 <__sfp_lock_acquire>:
    c732:	30 41       	ret			

0000c734 <__sfp_lock_release>:
    c734:	30 41       	ret			

0000c736 <_fwalk_reent>:
    c736:	0a 12       	push	r10		;

0000c738 <.LCFI5>:
    c738:	09 12       	push	r9		;

0000c73a <.LCFI6>:
    c73a:	08 12       	push	r8		;

0000c73c <.LCFI7>:
    c73c:	07 12       	push	r7		;

0000c73e <.LCFI8>:
    c73e:	06 12       	push	r6		;

0000c740 <.LCFI9>:
    c740:	05 12       	push	r5		;

0000c742 <.LCFI10>:
    c742:	06 4c       	mov	r12,	r6	;
    c744:	05 4d       	mov	r13,	r5	;

0000c746 <.LVL14>:
    c746:	0a 4c       	mov	r12,	r10	;
    c748:	3a 50 6c 00 	add	#108,	r10	;#0x006c

0000c74c <.Loc.63.1>:
    c74c:	48 43       	clr.b	r8		;

0000c74e <.L8>:
    c74e:	0a 93       	cmp	#0,	r10	;r3 As==00
    c750:	03 20       	jnz	$+8      	;abs 0xc758

0000c752 <.Loc.80.1>:
    c752:	0c 48       	mov	r8,	r12	;
    c754:	30 40 84 c3 	br	#0xc384		;

0000c758 <.L12>:
    c758:	17 4a 02 00 	mov	2(r10),	r7	;
    c75c:	19 4a 04 00 	mov	4(r10),	r9	;
    c760:	39 50 06 00 	add	#6,	r9	;

0000c764 <.L9>:
    c764:	0d 49       	mov	r9,	r13	;
    c766:	3d 50 fa ff 	add	#65530,	r13	;#0xfffa

0000c76a <.LVL20>:
    c76a:	37 53       	add	#-1,	r7	;r3 As==11
    c76c:	07 93       	cmp	#0,	r7	;r3 As==00
    c76e:	03 34       	jge	$+8      	;abs 0xc776

0000c770 <.Loc.74.1>:
    c770:	2a 4a       	mov	@r10,	r10	;
    c772:	30 40 4e c7 	br	#0xc74e		;

0000c776 <.L11>:
    c776:	5c 43       	mov.b	#1,	r12	;r3 As==01
    c778:	2c 99       	cmp	@r9,	r12	;
    c77a:	06 2c       	jc	$+14     	;abs 0xc788

0000c77c <.Loc.76.1>:
    c77c:	b9 93 02 00 	cmp	#-1,	2(r9)	;r3 As==11
    c780:	03 24       	jz	$+8      	;abs 0xc788

0000c782 <.Loc.77.1>:
    c782:	0c 46       	mov	r6,	r12	;
    c784:	85 12       	call	r5		;

0000c786 <.LVL23>:
    c786:	08 dc       	bis	r12,	r8	;

0000c788 <.L10>:
    c788:	39 50 3c 00 	add	#60,	r9	;#0x003c

0000c78c <.LVL25>:
    c78c:	30 40 64 c7 	br	#0xc764		;

0000c790 <memset>:
    c790:	0f 4c       	mov	r12,	r15	;
    c792:	0e 5c       	add	r12,	r14	;

0000c794 <.L2>:
    c794:	0f 9e       	cmp	r14,	r15	;
    c796:	01 20       	jnz	$+4      	;abs 0xc79a

0000c798 <.Loc.104.1>:
    c798:	30 41       	ret			

0000c79a <.L3>:
    c79a:	cf 4d 00 00 	mov.b	r13,	0(r15)	;
    c79e:	1f 53       	inc	r15		;

0000c7a0 <.LVL4>:
    c7a0:	30 40 94 c7 	br	#0xc794		;

0000c7a4 <_malloc_r>:
    c7a4:	0a 12       	push	r10		;

0000c7a6 <.LCFI0>:
    c7a6:	09 12       	push	r9		;

0000c7a8 <.LCFI1>:
    c7a8:	08 12       	push	r8		;

0000c7aa <.LCFI2>:
    c7aa:	07 12       	push	r7		;

0000c7ac <.LCFI3>:
    c7ac:	08 4c       	mov	r12,	r8	;

0000c7ae <.Loc.247.1>:
    c7ae:	09 4d       	mov	r13,	r9	;
    c7b0:	19 53       	inc	r9		;
    c7b2:	19 c3       	bic	#1,	r9	;r3 As==01

0000c7b4 <.LVL1>:
    c7b4:	39 50 0a 00 	add	#10,	r9	;#0x000a

0000c7b8 <.LVL2>:
    c7b8:	39 90 0c 00 	cmp	#12,	r9	;#0x000c
    c7bc:	02 2c       	jc	$+6      	;abs 0xc7c2
    c7be:	79 40 0c 00 	mov.b	#12,	r9	;#0x000c

0000c7c2 <.L2>:
    c7c2:	09 9d       	cmp	r13,	r9	;
    c7c4:	06 2c       	jc	$+14     	;abs 0xc7d2

0000c7c6 <.L13>:
    c7c6:	b8 40 0c 00 	mov	#12,	0(r8)	;#0x000c
    c7ca:	00 00 

0000c7cc <.Loc.255.1>:
    c7cc:	4c 43       	clr.b	r12		;

0000c7ce <.L1>:
    c7ce:	30 40 88 c3 	br	#0xc388		;

0000c7d2 <.L3>:
    c7d2:	1e 42 02 03 	mov	&0x0302,r14	;0x0302

0000c7d6 <.LVL6>:
    c7d6:	0d 4e       	mov	r14,	r13	;

0000c7d8 <.L5>:
    c7d8:	0d 93       	cmp	#0,	r13	;r3 As==00
    c7da:	21 20       	jnz	$+68     	;abs 0xc81e

0000c7dc <.LVL8>:
    c7dc:	37 40 f0 cb 	mov	#52208,	r7	;#0xcbf0

0000c7e0 <.LBB5>:
    c7e0:	82 93 00 03 	cmp	#0,	&0x0300	;r3 As==00
    c7e4:	04 20       	jnz	$+10     	;abs 0xc7ee
    c7e6:	0c 48       	mov	r8,	r12	;
    c7e8:	87 12       	call	r7		;

0000c7ea <.LVL9>:
    c7ea:	82 4c 00 03 	mov	r12,	&0x0300	;

0000c7ee <.L17>:
    c7ee:	0d 49       	mov	r9,	r13	;
    c7f0:	0c 48       	mov	r8,	r12	;
    c7f2:	87 12       	call	r7		;

0000c7f4 <.LVL10>:
    c7f4:	3c 93       	cmp	#-1,	r12	;r3 As==11
    c7f6:	e7 27       	jz	$-48     	;abs 0xc7c6

0000c7f8 <.Loc.222.1>:
    c7f8:	0e 4c       	mov	r12,	r14	;
    c7fa:	1e 53       	inc	r14		;
    c7fc:	0a 4e       	mov	r14,	r10	;
    c7fe:	1a c3       	bic	#1,	r10	;r3 As==01

0000c800 <.LVL11>:
    c800:	0c 9a       	cmp	r10,	r12	;
    c802:	06 24       	jz	$+14     	;abs 0xc810

0000c804 <.Loc.227.1>:
    c804:	0d 4a       	mov	r10,	r13	;
    c806:	0d 8c       	sub	r12,	r13	;
    c808:	0c 48       	mov	r8,	r12	;

0000c80a <.LVL12>:
    c80a:	87 12       	call	r7		;

0000c80c <.LVL13>:
    c80c:	3c 93       	cmp	#-1,	r12	;r3 As==11
    c80e:	db 27       	jz	$-72     	;abs 0xc7c6

0000c810 <.L14>:
    c810:	8a 49 00 00 	mov	r9,	0(r10)	;
    c814:	8a 43 02 00 	mov	#0,	2(r10)	;r3 As==00
    c818:	0e 4a       	mov	r10,	r14	;
    c81a:	30 40 4c c8 	br	#0xc84c		;

0000c81e <.L10>:
    c81e:	2c 4d       	mov	@r13,	r12	;
    c820:	0c 89       	sub	r9,	r12	;

0000c822 <.LVL16>:
    c822:	0c 93       	cmp	#0,	r12	;r3 As==00
    c824:	39 38       	jl	$+116    	;abs 0xc898

0000c826 <.Loc.268.1>:
    c826:	7a 40 0b 00 	mov.b	#11,	r10	;#0x000b
    c82a:	0a 9c       	cmp	r12,	r10	;
    c82c:	28 2c       	jc	$+82     	;abs 0xc87e

0000c82e <.Loc.272.1>:
    c82e:	0e 4c       	mov	r12,	r14	;
    c830:	3e b0 00 80 	bit	#32768,	r14	;#0x8000
    c834:	0f 7f       	subc	r15,	r15	;
    c836:	3f e3       	inv	r15		;

0000c838 <.LVL17>:
    c838:	8d 4e 00 00 	mov	r14,	0(r13)	;
    c83c:	8d 4f 02 00 	mov	r15,	2(r13)	;

0000c840 <.Loc.273.1>:
    c840:	0e 4d       	mov	r13,	r14	;
    c842:	0e 5c       	add	r12,	r14	;

0000c844 <.LVL18>:
    c844:	8e 49 00 00 	mov	r9,	0(r14)	;
    c848:	8e 43 02 00 	mov	#0,	2(r14)	;r3 As==00

0000c84c <.L8>:
    c84c:	0f 4e       	mov	r14,	r15	;
    c84e:	2f 52       	add	#4,	r15	;r2 As==10

0000c850 <.LVL20>:
    c850:	0c 4f       	mov	r15,	r12	;
    c852:	3c 50 07 00 	add	#7,	r12	;
    c856:	3c f0 f8 ff 	and	#65528,	r12	;#0xfff8

0000c85a <.LVL21>:
    c85a:	0d 4c       	mov	r12,	r13	;
    c85c:	0d 8f       	sub	r15,	r13	;

0000c85e <.LVL22>:
    c85e:	0d 93       	cmp	#0,	r13	;r3 As==00
    c860:	b6 27       	jz	$-146    	;abs 0xc7ce

0000c862 <.Loc.318.1>:
    c862:	0e 5d       	add	r13,	r14	;

0000c864 <.LVL23>:
    c864:	0f 43       	clr	r15		;
    c866:	0f 8d       	sub	r13,	r15	;

0000c868 <.LVL24>:
    c868:	0a 4f       	mov	r15,	r10	;
    c86a:	3a b0 00 80 	bit	#32768,	r10	;#0x8000
    c86e:	0b 7b       	subc	r11,	r11	;
    c870:	3b e3       	inv	r11		;
    c872:	8e 4a 00 00 	mov	r10,	0(r14)	;
    c876:	8e 4b 02 00 	mov	r11,	2(r14)	;
    c87a:	30 40 ce c7 	br	#0xc7ce		;

0000c87e <.L7>:
    c87e:	0e 9d       	cmp	r13,	r14	;
    c880:	05 20       	jnz	$+12     	;abs 0xc88c

0000c882 <.Loc.282.1>:
    c882:	92 4e 04 00 	mov	4(r14),	&0x0302	;
    c886:	02 03 
    c888:	30 40 4c c8 	br	#0xc84c		;

0000c88c <.L9>:
    c88c:	9e 4d 04 00 	mov	4(r13),	4(r14)	;
    c890:	04 00 
    c892:	0e 4d       	mov	r13,	r14	;

0000c894 <.LVL26>:
    c894:	30 40 4c c8 	br	#0xc84c		;

0000c898 <.L6>:
    c898:	0e 4d       	mov	r13,	r14	;
    c89a:	1d 4d 04 00 	mov	4(r13),	r13	;

0000c89e <.LVL28>:
    c89e:	30 40 d8 c7 	br	#0xc7d8		;

0000c8a2 <__sfputc_r>:
    c8a2:	1f 4e 04 00 	mov	4(r14),	r15	;
    c8a6:	3f 53       	add	#-1,	r15	;r3 As==11
    c8a8:	8e 4f 04 00 	mov	r15,	4(r14)	;
    c8ac:	0f 93       	cmp	#0,	r15	;r3 As==00
    c8ae:	06 34       	jge	$+14     	;abs 0xc8bc

0000c8b0 <.Loc.400.1>:
    c8b0:	1f 9e 0e 00 	cmp	14(r14),r15	;0x0000e
    c8b4:	0e 38       	jl	$+30     	;abs 0xc8d2

0000c8b6 <.Loc.400.1>:
    c8b6:	7d 90 0a 00 	cmp.b	#10,	r13	;#0x000a
    c8ba:	0b 24       	jz	$+24     	;abs 0xc8d2

0000c8bc <.L2>:
    c8bc:	2c 4e       	mov	@r14,	r12	;

0000c8be <.LVL1>:
    c8be:	0f 4c       	mov	r12,	r15	;
    c8c0:	1f 53       	inc	r15		;
    c8c2:	8e 4f 00 00 	mov	r15,	0(r14)	;
    c8c6:	cc 4d 00 00 	mov.b	r13,	0(r12)	;
    c8ca:	0c 4d       	mov	r13,	r12	;
    c8cc:	7c f0 ff 00 	and.b	#255,	r12	;#0x00ff

0000c8d0 <.L1>:
    c8d0:	30 41       	ret			

0000c8d2 <.L3>:
    c8d2:	b0 12 d8 cc 	call	#52440		;#0xccd8

0000c8d6 <.LVL4>:
    c8d6:	30 40 d0 c8 	br	#0xc8d0		;

0000c8da <__sfputs_r>:
    c8da:	0a 12       	push	r10		;

0000c8dc <.LCFI0>:
    c8dc:	09 12       	push	r9		;

0000c8de <.LCFI1>:
    c8de:	08 12       	push	r8		;

0000c8e0 <.LCFI2>:
    c8e0:	07 12       	push	r7		;

0000c8e2 <.LCFI3>:
    c8e2:	06 12       	push	r6		;

0000c8e4 <.LCFI4>:
    c8e4:	05 12       	push	r5		;

0000c8e6 <.LCFI5>:
    c8e6:	07 4c       	mov	r12,	r7	;
    c8e8:	08 4d       	mov	r13,	r8	;
    c8ea:	0c 4f       	mov	r15,	r12	;

0000c8ec <.LVL6>:
    c8ec:	0a 4e       	mov	r14,	r10	;

0000c8ee <.Loc.416.1>:
    c8ee:	fd b0 20 00 	bit.b	#32,	59(r13)	;#0x0020, 0x003b
    c8f2:	3b 00 
    c8f4:	0f 20       	jnz	$+32     	;abs 0xc914
    c8f6:	09 4e       	mov	r14,	r9	;
    c8f8:	09 5f       	add	r15,	r9	;

0000c8fa <.Loc.433.1>:
    c8fa:	36 40 a2 c8 	mov	#51362,	r6	;#0xc8a2

0000c8fe <.L10>:
    c8fe:	0a 99       	cmp	r9,	r10	;
    c900:	11 24       	jz	$+36     	;abs 0xc924

0000c902 <.Loc.433.1>:
    c902:	0e 48       	mov	r8,	r14	;
    c904:	6d 4a       	mov.b	@r10,	r13	;
    c906:	0c 47       	mov	r7,	r12	;
    c908:	86 12       	call	r6		;

0000c90a <.LVL8>:
    c90a:	1a 53       	inc	r10		;

0000c90c <.LVL9>:
    c90c:	3c 93       	cmp	#-1,	r12	;r3 As==11
    c90e:	f7 23       	jnz	$-16     	;abs 0xc8fe
    c910:	30 40 3c c9 	br	#0xc93c		;

0000c914 <.L9>:
    c914:	b0 12 ae c4 	call	#50350		;#0xc4ae

0000c918 <.LVL11>:
    c918:	06 4c       	mov	r12,	r6	;
    c91a:	49 43       	clr.b	r9		;

0000c91c <.Loc.423.1>:
    c91c:	35 40 6c d2 	mov	#53868,	r5	;#0xd26c

0000c920 <.L11>:
    c920:	09 96       	cmp	r6,	r9	;
    c922:	03 20       	jnz	$+8      	;abs 0xc92a

0000c924 <.L17>:
    c924:	4c 43       	clr.b	r12		;
    c926:	30 40 3e c9 	br	#0xc93e		;

0000c92a <.L14>:
    c92a:	0f 48       	mov	r8,	r15	;
    c92c:	2d 4a       	mov	@r10,	r13	;
    c92e:	1e 4a 02 00 	mov	2(r10),	r14	;
    c932:	0c 47       	mov	r7,	r12	;
    c934:	85 12       	call	r5		;

0000c936 <.LVL15>:
    c936:	2a 52       	add	#4,	r10	;r2 As==10
    c938:	3c 93       	cmp	#-1,	r12	;r3 As==11
    c93a:	03 20       	jnz	$+8      	;abs 0xc942

0000c93c <.L15>:
    c93c:	3c 43       	mov	#-1,	r12	;r3 As==11

0000c93e <.L8>:
    c93e:	30 40 84 c3 	br	#0xc384		;

0000c942 <.L12>:
    c942:	19 53       	inc	r9		;
    c944:	30 40 20 c9 	br	#0xc920		;

0000c948 <_vfiprintf_r>:
    c948:	0a 12       	push	r10		;

0000c94a <.LCFI14>:
    c94a:	09 12       	push	r9		;

0000c94c <.LCFI15>:
    c94c:	08 12       	push	r8		;

0000c94e <.LCFI16>:
    c94e:	07 12       	push	r7		;

0000c950 <.LCFI17>:
    c950:	06 12       	push	r6		;

0000c952 <.LCFI18>:
    c952:	05 12       	push	r5		;

0000c954 <.LCFI19>:
    c954:	04 12       	push	r4		;

0000c956 <.LCFI20>:
    c956:	31 80 52 00 	sub	#82,	r1	;#0x0052

0000c95a <.LCFI21>:
    c95a:	08 4c       	mov	r12,	r8	;
    c95c:	09 4d       	mov	r13,	r9	;
    c95e:	07 4e       	mov	r14,	r7	;
    c960:	81 4f 04 00 	mov	r15,	4(r1)	;

0000c964 <.LBB16>:
    c964:	0c 93       	cmp	#0,	r12	;r3 As==00
    c966:	05 24       	jz	$+12     	;abs 0xc972

0000c968 <.Loc.493.1>:
    c968:	8c 93 0c 00 	cmp	#0,	12(r12)	;r3 As==00, 0x000c
    c96c:	02 20       	jnz	$+6      	;abs 0xc972

0000c96e <.Loc.493.1>:
    c96e:	b0 12 08 c6 	call	#50696		;#0xc608

0000c972 <.L32>:
    c972:	39 90 98 c0 	cmp	#49304,	r9	;#0xc098
    c976:	66 20       	jnz	$+206    	;abs 0xca44

0000c978 <.Loc.493.1>:
    c978:	19 48 02 00 	mov	2(r8),	r9	;

0000c97c <.L34>:
    c97c:	f9 b2 06 00 	bit.b	#8,	6(r9)	;r2 As==11
    c980:	6f 24       	jz	$+224    	;abs 0xca60

0000c982 <.Loc.497.1>:
    c982:	89 93 0a 00 	cmp	#0,	10(r9)	;r3 As==00, 0x000a
    c986:	6c 24       	jz	$+218    	;abs 0xca60

0000c988 <.L38>:
    c988:	81 43 10 00 	mov	#0,	16(r1)	;r3 As==00, 0x0010

0000c98c <.Loc.519.1>:
    c98c:	f1 40 20 00 	mov.b	#32,	19(r1)	;#0x0020, 0x0013
    c990:	13 00 

0000c992 <.Loc.520.1>:
    c992:	f1 40 30 00 	mov.b	#48,	20(r1)	;#0x0030, 0x0014
    c996:	14 00 

0000c998 <.Loc.531.1>:
    c998:	35 40 da c8 	mov	#51418,	r5	;#0xc8da

0000c99c <.Loc.554.1>:
    c99c:	34 40 d4 d3 	mov	#54228,	r4	;#0xd3d4

0000c9a0 <.L37>:
    c9a0:	0a 47       	mov	r7,	r10	;

0000c9a2 <.L40>:
    c9a2:	6c 4a       	mov.b	@r10,	r12	;
    c9a4:	0c 93       	cmp	#0,	r12	;r3 As==00
    c9a6:	67 20       	jnz	$+208    	;abs 0xca76

0000c9a8 <.L45>:
    c9a8:	0b 4a       	mov	r10,	r11	;
    c9aa:	0b 87       	sub	r7,	r11	;

0000c9ac <.LVL43>:
    c9ac:	0b 93       	cmp	#0,	r11	;r3 As==00
    c9ae:	0d 24       	jz	$+28     	;abs 0xc9ca

0000c9b0 <.Loc.531.1>:
    c9b0:	0f 4b       	mov	r11,	r15	;
    c9b2:	0e 47       	mov	r7,	r14	;
    c9b4:	0d 49       	mov	r9,	r13	;
    c9b6:	0c 48       	mov	r8,	r12	;
    c9b8:	81 4b 02 00 	mov	r11,	2(r1)	;
    c9bc:	85 12       	call	r5		;

0000c9be <.LVL44>:
    c9be:	1b 41 02 00 	mov	2(r1),	r11	;
    c9c2:	3c 93       	cmp	#-1,	r12	;r3 As==11
    c9c4:	ff 24       	jz	$+512    	;abs 0xcbc4

0000c9c6 <.Loc.532.1>:
    c9c6:	81 5b 10 00 	add	r11,	16(r1)	; 0x0010

0000c9ca <.L43>:
    c9ca:	ca 93 00 00 	cmp.b	#0,	0(r10)	;r3 As==00
    c9ce:	fa 24       	jz	$+502    	;abs 0xcbc4

0000c9d0 <.Loc.537.1>:
    c9d0:	1a 53       	inc	r10		;

0000c9d2 <.LVL45>:
    c9d2:	81 43 06 00 	mov	#0,	6(r1)	;r3 As==00

0000c9d6 <.Loc.540.1>:
    c9d6:	81 43 0c 00 	mov	#0,	12(r1)	;r3 As==00, 0x000c

0000c9da <.Loc.541.1>:
    c9da:	b1 43 08 00 	mov	#-1,	8(r1)	;r3 As==11

0000c9de <.Loc.542.1>:
    c9de:	81 43 0a 00 	mov	#0,	10(r1)	;r3 As==00, 0x000a

0000c9e2 <.Loc.543.1>:
    c9e2:	c1 43 3d 00 	mov.b	#0,	61(r1)	;r3 As==00, 0x003d

0000c9e6 <.Loc.545.1>:
    c9e6:	81 43 50 00 	mov	#0,	80(r1)	;r3 As==00, 0x0050

0000c9ea <.L47>:
    c9ea:	7e 40 05 00 	mov.b	#5,	r14	;
    c9ee:	6d 4a       	mov.b	@r10,	r13	;
    c9f0:	3c 40 ae c0 	mov	#49326,	r12	;#0xc0ae
    c9f4:	84 12       	call	r4		;

0000c9f6 <.LVL47>:
    c9f6:	0d 4c       	mov	r12,	r13	;

0000c9f8 <.LVL48>:
    c9f8:	07 4a       	mov	r10,	r7	;
    c9fa:	17 53       	inc	r7		;
    c9fc:	0c 93       	cmp	#0,	r12	;r3 As==00
    c9fe:	41 20       	jnz	$+132    	;abs 0xca82

0000ca00 <.Loc.557.1>:
    ca00:	1d 41 06 00 	mov	6(r1),	r13	;
    ca04:	3d b0 10 00 	bit	#16,	r13	;#0x0010
    ca08:	03 24       	jz	$+8      	;abs 0xca10

0000ca0a <.Loc.558.1>:
    ca0a:	f1 40 20 00 	mov.b	#32,	61(r1)	;#0x0020, 0x003d
    ca0e:	3d 00 

0000ca10 <.L49>:
    ca10:	3d b2       	bit	#8,	r13	;r2 As==11
    ca12:	03 24       	jz	$+8      	;abs 0xca1a

0000ca14 <.Loc.566.1>:
    ca14:	f1 40 2b 00 	mov.b	#43,	61(r1)	;#0x002b, 0x003d
    ca18:	3d 00 

0000ca1a <.L50>:
    ca1a:	fa 90 2a 00 	cmp.b	#42,	0(r10)	;#0x002a
    ca1e:	00 00 
    ca20:	3a 24       	jz	$+118    	;abs 0xca96
    ca22:	1f 41 0c 00 	mov	12(r1),	r15	;0x0000c
    ca26:	4c 43       	clr.b	r12		;

0000ca28 <.LVL49>:
    ca28:	5e 43       	mov.b	#1,	r14	;r3 As==01

0000ca2a <.L52>:
    ca2a:	6d 4a       	mov.b	@r10,	r13	;
    ca2c:	3d 50 d0 ff 	add	#65488,	r13	;#0xffd0
    ca30:	77 40 09 00 	mov.b	#9,	r7	;
    ca34:	07 9d       	cmp	r13,	r7	;
    ca36:	8b 2c       	jc	$+280    	;abs 0xcb4e
    ca38:	0c 93       	cmp	#0,	r12	;r3 As==00
    ca3a:	3b 24       	jz	$+120    	;abs 0xcab2
    ca3c:	81 4f 0c 00 	mov	r15,	12(r1)	; 0x000c
    ca40:	30 40 b2 ca 	br	#0xcab2		;

0000ca44 <.L33>:
    ca44:	39 90 86 c0 	cmp	#49286,	r9	;#0xc086
    ca48:	04 20       	jnz	$+10     	;abs 0xca52

0000ca4a <.Loc.493.1>:
    ca4a:	19 48 04 00 	mov	4(r8),	r9	;
    ca4e:	30 40 7c c9 	br	#0xc97c		;

0000ca52 <.L35>:
    ca52:	39 90 74 c0 	cmp	#49268,	r9	;#0xc074
    ca56:	92 23       	jnz	$-218    	;abs 0xc97c

0000ca58 <.Loc.493.1>:
    ca58:	19 48 06 00 	mov	6(r8),	r9	;
    ca5c:	30 40 7c c9 	br	#0xc97c		;

0000ca60 <.L36>:
    ca60:	0d 49       	mov	r9,	r13	;
    ca62:	0c 48       	mov	r8,	r12	;
    ca64:	b0 12 d6 cd 	call	#52694		;#0xcdd6

0000ca68 <.LVL53>:
    ca68:	0c 93       	cmp	#0,	r12	;r3 As==00
    ca6a:	8e 27       	jz	$-226    	;abs 0xc988

0000ca6c <.L70>:
    ca6c:	3c 43       	mov	#-1,	r12	;r3 As==11

0000ca6e <.L31>:
    ca6e:	31 50 52 00 	add	#82,	r1	;#0x0052
    ca72:	30 40 82 c3 	br	#0xc382		;

0000ca76 <.L41>:
    ca76:	3c 90 25 00 	cmp	#37,	r12	;#0x0025
    ca7a:	96 27       	jz	$-210    	;abs 0xc9a8

0000ca7c <.Loc.527.1>:
    ca7c:	1a 53       	inc	r10		;
    ca7e:	30 40 a2 c9 	br	#0xc9a2		;

0000ca82 <.L48>:
    ca82:	5c 43       	mov.b	#1,	r12	;r3 As==01

0000ca84 <.LVL58>:
    ca84:	3d 80 ae c0 	sub	#49326,	r13	;#0xc0ae

0000ca88 <.LVL59>:
    ca88:	b0 12 b6 c3 	call	#50102		;#0xc3b6

0000ca8c <.LVL60>:
    ca8c:	81 dc 06 00 	bis	r12,	6(r1)	;

0000ca90 <.Loc.554.1>:
    ca90:	0a 47       	mov	r7,	r10	;

0000ca92 <.LVL61>:
    ca92:	30 40 ea c9 	br	#0xc9ea		;

0000ca96 <.L51>:
    ca96:	1c 41 04 00 	mov	4(r1),	r12	;

0000ca9a <.LVL63>:
    ca9a:	1c 53       	inc	r12		;
    ca9c:	1c c3       	bic	#1,	r12	;r3 As==01
    ca9e:	0e 4c       	mov	r12,	r14	;
    caa0:	2e 53       	incd	r14		;
    caa2:	81 4e 04 00 	mov	r14,	4(r1)	;
    caa6:	2c 4c       	mov	@r12,	r12	;

0000caa8 <.Loc.578.1>:
    caa8:	0c 93       	cmp	#0,	r12	;r3 As==00
    caaa:	48 38       	jl	$+146    	;abs 0xcb3c

0000caac <.Loc.577.1>:
    caac:	81 4c 0c 00 	mov	r12,	12(r1)	; 0x000c

0000cab0 <.L54>:
    cab0:	0a 47       	mov	r7,	r10	;

0000cab2 <.L55>:
    cab2:	fa 90 2e 00 	cmp.b	#46,	0(r10)	;#0x002e
    cab6:	00 00 
    cab8:	14 20       	jnz	$+42     	;abs 0xcae2

0000caba <.Loc.594.1>:
    caba:	0c 4a       	mov	r10,	r12	;
    cabc:	1c 53       	inc	r12		;

0000cabe <.LVL65>:
    cabe:	fa 90 2a 00 	cmp.b	#42,	1(r10)	;#0x002a
    cac2:	01 00 
    cac4:	53 20       	jnz	$+168    	;abs 0xcb6c

0000cac6 <.Loc.597.1>:
    cac6:	2a 53       	incd	r10		;

0000cac8 <.LVL66>:
    cac8:	1c 41 04 00 	mov	4(r1),	r12	;
    cacc:	1c 53       	inc	r12		;
    cace:	1c c3       	bic	#1,	r12	;r3 As==01
    cad0:	0d 4c       	mov	r12,	r13	;
    cad2:	2d 53       	incd	r13		;
    cad4:	81 4d 04 00 	mov	r13,	4(r1)	;
    cad8:	2c 4c       	mov	@r12,	r12	;

0000cada <.Loc.599.1>:
    cada:	0c 93       	cmp	#0,	r12	;r3 As==00
    cadc:	43 38       	jl	$+136    	;abs 0xcb64

0000cade <.Loc.598.1>:
    cade:	81 4c 08 00 	mov	r12,	8(r1)	;

0000cae2 <.L58>:
    cae2:	7e 40 03 00 	mov.b	#3,	r14	;
    cae6:	6d 4a       	mov.b	@r10,	r13	;
    cae8:	3c 40 b4 c0 	mov	#49332,	r12	;#0xc0b4
    caec:	84 12       	call	r4		;

0000caee <.LVL68>:
    caee:	0d 4c       	mov	r12,	r13	;

0000caf0 <.LVL69>:
    caf0:	0c 93       	cmp	#0,	r12	;r3 As==00
    caf2:	09 24       	jz	$+20     	;abs 0xcb06

0000caf4 <.Loc.614.1>:
    caf4:	7c 40 40 00 	mov.b	#64,	r12	;#0x0040

0000caf8 <.LVL70>:
    caf8:	3d 80 b4 c0 	sub	#49332,	r13	;#0xc0b4

0000cafc <.LVL71>:
    cafc:	b0 12 b6 c3 	call	#50102		;#0xc3b6

0000cb00 <.LVL72>:
    cb00:	81 dc 06 00 	bis	r12,	6(r1)	;

0000cb04 <.Loc.615.1>:
    cb04:	1a 53       	inc	r10		;

0000cb06 <.L64>:
    cb06:	07 4a       	mov	r10,	r7	;
    cb08:	17 53       	inc	r7		;

0000cb0a <.LVL74>:
    cb0a:	6d 4a       	mov.b	@r10,	r13	;
    cb0c:	c1 4d 12 00 	mov.b	r13,	18(r1)	; 0x0012

0000cb10 <.Loc.620.1>:
    cb10:	7e 40 06 00 	mov.b	#6,	r14	;
    cb14:	3c 40 b8 c0 	mov	#49336,	r12	;#0xc0b8
    cb18:	84 12       	call	r4		;

0000cb1a <.LVL75>:
    cb1a:	0c 93       	cmp	#0,	r12	;r3 As==00
    cb1c:	5b 24       	jz	$+184    	;abs 0xcbd4

0000cb1e <.Loc.627.1>:
    cb1e:	3a 40 00 00 	mov	#0,	r10	;
    cb22:	0a 93       	cmp	#0,	r10	;r3 As==00
    cb24:	41 20       	jnz	$+132    	;abs 0xcba8
    cb26:	1c 41 04 00 	mov	4(r1),	r12	;

0000cb2a <.LVL76>:
    cb2a:	1c 53       	inc	r12		;
    cb2c:	1c c3       	bic	#1,	r12	;r3 As==01
    cb2e:	3c 52       	add	#8,	r12	;r2 As==11

0000cb30 <.Loc.632.1>:
    cb30:	81 4c 04 00 	mov	r12,	4(r1)	;

0000cb34 <.L68>:
    cb34:	81 56 10 00 	add	r6,	16(r1)	; 0x0010

0000cb38 <.Loc.525.1>:
    cb38:	30 40 a0 c9 	br	#0xc9a0		;

0000cb3c <.L53>:
    cb3c:	4e 43       	clr.b	r14		;
    cb3e:	0e 8c       	sub	r12,	r14	;
    cb40:	81 4e 0c 00 	mov	r14,	12(r1)	; 0x000c

0000cb44 <.Loc.581.1>:
    cb44:	2d d3       	bis	#2,	r13	;r3 As==10
    cb46:	81 4d 06 00 	mov	r13,	6(r1)	;
    cb4a:	30 40 b0 ca 	br	#0xcab0		;

0000cb4e <.L56>:
    cb4e:	0c 4f       	mov	r15,	r12	;
    cb50:	0c 5f       	add	r15,	r12	;
    cb52:	0c 5c       	rla	r12		;
    cb54:	0c 5f       	add	r15,	r12	;
    cb56:	0c 5c       	rla	r12		;
    cb58:	0f 4c       	mov	r12,	r15	;
    cb5a:	0f 5d       	add	r13,	r15	;

0000cb5c <.Loc.587.1>:
    cb5c:	1a 53       	inc	r10		;
    cb5e:	0c 4e       	mov	r14,	r12	;
    cb60:	30 40 2a ca 	br	#0xca2a		;

0000cb64 <.L60>:
    cb64:	b1 43 08 00 	mov	#-1,	8(r1)	;r3 As==11
    cb68:	30 40 e2 ca 	br	#0xcae2		;

0000cb6c <.L59>:
    cb6c:	81 43 08 00 	mov	#0,	8(r1)	;r3 As==00

0000cb70 <.Loc.594.1>:
    cb70:	0a 4c       	mov	r12,	r10	;

0000cb72 <.Loc.605.1>:
    cb72:	4c 43       	clr.b	r12		;

0000cb74 <.LVL80>:
    cb74:	0f 4c       	mov	r12,	r15	;
    cb76:	5e 43       	mov.b	#1,	r14	;r3 As==01

0000cb78 <.L61>:
    cb78:	6d 4a       	mov.b	@r10,	r13	;
    cb7a:	3d 50 d0 ff 	add	#65488,	r13	;#0xffd0
    cb7e:	77 40 09 00 	mov.b	#9,	r7	;
    cb82:	07 9d       	cmp	r13,	r7	;
    cb84:	06 2c       	jc	$+14     	;abs 0xcb92
    cb86:	0c 93       	cmp	#0,	r12	;r3 As==00
    cb88:	ac 27       	jz	$-166    	;abs 0xcae2
    cb8a:	81 4f 08 00 	mov	r15,	8(r1)	;
    cb8e:	30 40 e2 ca 	br	#0xcae2		;

0000cb92 <.L62>:
    cb92:	0c 4f       	mov	r15,	r12	;
    cb94:	0c 5f       	add	r15,	r12	;
    cb96:	0c 5c       	rla	r12		;
    cb98:	0c 5f       	add	r15,	r12	;
    cb9a:	0c 5c       	rla	r12		;
    cb9c:	0f 4c       	mov	r12,	r15	;
    cb9e:	0f 5d       	add	r13,	r15	;

0000cba0 <.Loc.605.1>:
    cba0:	1a 53       	inc	r10		;
    cba2:	0c 4e       	mov	r14,	r12	;
    cba4:	30 40 78 cb 	br	#0xcb78		;

0000cba8 <.L66>:
    cba8:	6c 42       	mov.b	#4,	r12	;r2 As==10

0000cbaa <.LVL83>:
    cbaa:	0c 51       	add	r1,	r12	;
    cbac:	81 4c 00 00 	mov	r12,	0(r1)	;
    cbb0:	0f 45       	mov	r5,	r15	;
    cbb2:	0e 49       	mov	r9,	r14	;
    cbb4:	0d 41       	mov	r1,	r13	;
    cbb6:	3d 50 06 00 	add	#6,	r13	;
    cbba:	0c 48       	mov	r8,	r12	;
    cbbc:	8a 12       	call	r10		;

0000cbbe <.L101>:
    cbbe:	06 4c       	mov	r12,	r6	;

0000cbc0 <.Loc.643.1>:
    cbc0:	3c 93       	cmp	#-1,	r12	;r3 As==11
    cbc2:	b8 23       	jnz	$-142    	;abs 0xcb34

0000cbc4 <.L46>:
    cbc4:	f9 b0 40 00 	bit.b	#64,	6(r9)	;#0x0040
    cbc8:	06 00 
    cbca:	50 23       	jnz	$-350    	;abs 0xca6c

0000cbcc <.Loc.654.1>:
    cbcc:	1c 41 10 00 	mov	16(r1),	r12	;0x00010
    cbd0:	30 40 6e ca 	br	#0xca6e		;

0000cbd4 <.L65>:
    cbd4:	6d 42       	mov.b	#4,	r13	;r2 As==10
    cbd6:	0d 51       	add	r1,	r13	;
    cbd8:	81 4d 00 00 	mov	r13,	0(r1)	;
    cbdc:	0f 45       	mov	r5,	r15	;
    cbde:	0e 49       	mov	r9,	r14	;
    cbe0:	0d 41       	mov	r1,	r13	;
    cbe2:	3d 50 06 00 	add	#6,	r13	;
    cbe6:	0c 48       	mov	r8,	r12	;

0000cbe8 <.LVL88>:
    cbe8:	b0 12 48 d6 	call	#54856		;#0xd648

0000cbec <.LVL89>:
    cbec:	30 40 be cb 	br	#0xcbbe		;

0000cbf0 <_sbrk_r>:
    cbf0:	0a 12       	push	r10		;

0000cbf2 <.LCFI0>:
    cbf2:	0a 4c       	mov	r12,	r10	;

0000cbf4 <.Loc.57.1>:
    cbf4:	82 43 04 03 	mov	#0,	&0x0304	;r3 As==00

0000cbf8 <.Loc.58.1>:
    cbf8:	0c 4d       	mov	r13,	r12	;

0000cbfa <.LVL1>:
    cbfa:	b0 12 84 dc 	call	#56452		;#0xdc84

0000cbfe <.LVL2>:
    cbfe:	3c 93       	cmp	#-1,	r12	;r3 As==11
    cc00:	06 20       	jnz	$+14     	;abs 0xcc0e

0000cc02 <.Loc.58.1>:
    cc02:	1d 42 04 03 	mov	&0x0304,r13	;0x0304
    cc06:	0d 93       	cmp	#0,	r13	;r3 As==00
    cc08:	02 24       	jz	$+6      	;abs 0xcc0e

0000cc0a <.Loc.59.1>:
    cc0a:	8a 4d 00 00 	mov	r13,	0(r10)	;

0000cc0e <.L2>:
    cc0e:	3a 41       	pop	r10		;

0000cc10 <.LVL3>:
    cc10:	30 41       	ret			

0000cc12 <__sread>:
    cc12:	0a 12       	push	r10		;

0000cc14 <.LCFI0>:
    cc14:	09 12       	push	r9		;

0000cc16 <.LCFI1>:
    cc16:	08 12       	push	r8		;

0000cc18 <.LCFI2>:
    cc18:	0a 4d       	mov	r13,	r10	;

0000cc1a <.LVL1>:
    cc1a:	1d 4d 08 00 	mov	8(r13),	r13	;

0000cc1e <.LVL2>:
    cc1e:	b0 12 04 da 	call	#55812		;#0xda04

0000cc22 <.LVL3>:
    cc22:	0c 93       	cmp	#0,	r12	;r3 As==00
    cc24:	11 38       	jl	$+36     	;abs 0xcc48

0000cc26 <.Loc.58.1>:
    cc26:	0e 4c       	mov	r12,	r14	;
    cc28:	3e b0 00 80 	bit	#32768,	r14	;#0x8000
    cc2c:	0f 7f       	subc	r15,	r15	;
    cc2e:	3f e3       	inv	r15		;
    cc30:	08 4e       	mov	r14,	r8	;
    cc32:	09 4f       	mov	r15,	r9	;
    cc34:	18 5a 2e 00 	add	46(r10),r8	;0x0002e
    cc38:	19 6a 30 00 	addc	48(r10),r9	;0x00030
    cc3c:	8a 48 2e 00 	mov	r8,	46(r10)	; 0x002e
    cc40:	8a 49 30 00 	mov	r9,	48(r10)	; 0x0030

0000cc44 <.L1>:
    cc44:	30 40 8a c3 	br	#0xc38a		;

0000cc48 <.L2>:
    cc48:	ba f0 ff ef 	and	#61439,	6(r10)	;#0xefff
    cc4c:	06 00 

0000cc4e <.Loc.61.1>:
    cc4e:	30 40 44 cc 	br	#0xcc44		;

0000cc52 <__swrite>:
    cc52:	0a 12       	push	r10		;

0000cc54 <.LCFI3>:
    cc54:	09 12       	push	r9		;

0000cc56 <.LCFI4>:
    cc56:	08 12       	push	r8		;

0000cc58 <.LCFI5>:
    cc58:	07 12       	push	r7		;

0000cc5a <.LCFI6>:
    cc5a:	21 83       	decd	r1		;

0000cc5c <.LCFI7>:
    cc5c:	09 4c       	mov	r12,	r9	;
    cc5e:	0a 4d       	mov	r13,	r10	;
    cc60:	08 4e       	mov	r14,	r8	;
    cc62:	07 4f       	mov	r15,	r7	;

0000cc64 <.LVL7>:
    cc64:	dd b3 07 00 	bit.b	#1,	7(r13)	;r3 As==01
    cc68:	08 24       	jz	$+18     	;abs 0xcc7a

0000cc6a <.Loc.89.1>:
    cc6a:	1d 4d 08 00 	mov	8(r13),	r13	;

0000cc6e <.LVL8>:
    cc6e:	a1 43 00 00 	mov	#2,	0(r1)	;r3 As==10
    cc72:	4e 43       	clr.b	r14		;

0000cc74 <.LVL9>:
    cc74:	4f 43       	clr.b	r15		;

0000cc76 <.LVL10>:
    cc76:	b0 12 a8 d2 	call	#53928		;#0xd2a8

0000cc7a <.L6>:
    cc7a:	ba f0 ff ef 	and	#61439,	6(r10)	;#0xefff
    cc7e:	06 00 

0000cc80 <.Loc.97.1>:
    cc80:	0f 47       	mov	r7,	r15	;
    cc82:	0e 48       	mov	r8,	r14	;
    cc84:	1d 4a 08 00 	mov	8(r10),	r13	;
    cc88:	0c 49       	mov	r9,	r12	;
    cc8a:	b0 12 b0 cd 	call	#52656		;#0xcdb0

0000cc8e <.LVL12>:
    cc8e:	21 53       	incd	r1		;
    cc90:	30 40 88 c3 	br	#0xc388		;

0000cc94 <__sseek>:
    cc94:	0a 12       	push	r10		;

0000cc96 <.LCFI8>:
    cc96:	21 83       	decd	r1		;

0000cc98 <.LCFI9>:
    cc98:	0a 4d       	mov	r13,	r10	;

0000cc9a <.LVL14>:
    cc9a:	1d 4d 08 00 	mov	8(r13),	r13	;

0000cc9e <.LVL15>:
    cc9e:	91 41 06 00 	mov	6(r1),	0(r1)	;
    cca2:	00 00 
    cca4:	b0 12 a8 d2 	call	#53928		;#0xd2a8

0000cca8 <.LVL16>:
    cca8:	3c 93       	cmp	#-1,	r12	;r3 As==11
    ccaa:	08 20       	jnz	$+18     	;abs 0xccbc
    ccac:	3d 93       	cmp	#-1,	r13	;r3 As==11
    ccae:	06 20       	jnz	$+14     	;abs 0xccbc

0000ccb0 <.Loc.119.1>:
    ccb0:	ba f0 ff ef 	and	#61439,	6(r10)	;#0xefff
    ccb4:	06 00 

0000ccb6 <.L10>:
    ccb6:	21 53       	incd	r1		;
    ccb8:	3a 41       	pop	r10		;

0000ccba <.LVL17>:
    ccba:	30 41       	ret			

0000ccbc <.L11>:
    ccbc:	ba d0 00 10 	bis	#4096,	6(r10)	;#0x1000
    ccc0:	06 00 

0000ccc2 <.Loc.123.1>:
    ccc2:	8a 4c 2e 00 	mov	r12,	46(r10)	; 0x002e
    ccc6:	8a 4d 30 00 	mov	r13,	48(r10)	; 0x0030

0000ccca <.Loc.125.1>:
    ccca:	30 40 b6 cc 	br	#0xccb6		;

0000ccce <__sclose>:
    ccce:	1d 4d 08 00 	mov	8(r13),	r13	;

0000ccd2 <.LVL21>:
    ccd2:	b0 12 d8 ce 	call	#52952		;#0xced8

0000ccd6 <.LVL22>:
    ccd6:	30 41       	ret			

0000ccd8 <__swbuf_r>:
    ccd8:	0a 12       	push	r10		;

0000ccda <.LCFI0>:
    ccda:	09 12       	push	r9		;

0000ccdc <.LCFI1>:
    ccdc:	08 12       	push	r8		;

0000ccde <.LCFI2>:
    ccde:	07 12       	push	r7		;

0000cce0 <.LCFI3>:
    cce0:	09 4c       	mov	r12,	r9	;
    cce2:	08 4d       	mov	r13,	r8	;
    cce4:	0a 4e       	mov	r14,	r10	;

0000cce6 <.LBB2>:
    cce6:	0c 93       	cmp	#0,	r12	;r3 As==00
    cce8:	05 24       	jz	$+12     	;abs 0xccf4

0000ccea <.Loc.45.1>:
    ccea:	8c 93 0c 00 	cmp	#0,	12(r12)	;r3 As==00, 0x000c
    ccee:	02 20       	jnz	$+6      	;abs 0xccf4

0000ccf0 <.Loc.45.1>:
    ccf0:	b0 12 08 c6 	call	#50696		;#0xc608

0000ccf4 <.L2>:
    ccf4:	3a 90 98 c0 	cmp	#49304,	r10	;#0xc098
    ccf8:	3a 20       	jnz	$+118    	;abs 0xcd6e

0000ccfa <.Loc.45.1>:
    ccfa:	1a 49 02 00 	mov	2(r9),	r10	;

0000ccfe <.L4>:
    ccfe:	9a 4a 0e 00 	mov	14(r10),4(r10)	;0x0000e
    cd02:	04 00 

0000cd04 <.Loc.56.1>:
    cd04:	fa b2 06 00 	bit.b	#8,	6(r10)	;r2 As==11
    cd08:	40 24       	jz	$+130    	;abs 0xcd8a

0000cd0a <.Loc.56.1>:
    cd0a:	8a 93 0a 00 	cmp	#0,	10(r10)	;r3 As==00, 0x000a
    cd0e:	3d 24       	jz	$+124    	;abs 0xcd8a

0000cd10 <.L9>:
    cd10:	47 48       	mov.b	r8,	r7	;
    cd12:	78 f0 ff 00 	and.b	#255,	r8	;#0x00ff

0000cd16 <.Loc.60.1>:
    cd16:	1c 4a 06 00 	mov	6(r10),	r12	;
    cd1a:	3c b0 00 20 	bit	#8192,	r12	;#0x2000
    cd1e:	3f 24       	jz	$+128    	;abs 0xcd9e

0000cd20 <.L8>:
    cd20:	2c 4a       	mov	@r10,	r12	;
    cd22:	1c 8a 0a 00 	sub	10(r10),r12	;0x0000a

0000cd26 <.LVL5>:
    cd26:	1c 9a 0c 00 	cmp	12(r10),r12	;0x0000c
    cd2a:	06 38       	jl	$+14     	;abs 0xcd38

0000cd2c <.Loc.75.1>:
    cd2c:	0d 4a       	mov	r10,	r13	;
    cd2e:	0c 49       	mov	r9,	r12	;

0000cd30 <.LVL6>:
    cd30:	b0 12 54 d1 	call	#53588		;#0xd154

0000cd34 <.LVL7>:
    cd34:	0c 93       	cmp	#0,	r12	;r3 As==00
    cd36:	2f 20       	jnz	$+96     	;abs 0xcd96

0000cd38 <.L11>:
    cd38:	ba 53 04 00 	add	#-1,	4(r10)	;r3 As==11

0000cd3c <.Loc.80.1>:
    cd3c:	2d 4a       	mov	@r10,	r13	;
    cd3e:	0e 4d       	mov	r13,	r14	;
    cd40:	1e 53       	inc	r14		;
    cd42:	8a 4e 00 00 	mov	r14,	0(r10)	;
    cd46:	cd 47 00 00 	mov.b	r7,	0(r13)	;

0000cd4a <.LVL9>:
    cd4a:	1c 53       	inc	r12		;

0000cd4c <.LVL10>:
    cd4c:	1c 9a 0c 00 	cmp	12(r10),r12	;0x0000c
    cd50:	06 24       	jz	$+14     	;abs 0xcd5e

0000cd52 <.Loc.81.1>:
    cd52:	da b3 06 00 	bit.b	#1,	6(r10)	;r3 As==01
    cd56:	20 24       	jz	$+66     	;abs 0xcd98

0000cd58 <.Loc.81.1>:
    cd58:	38 90 0a 00 	cmp	#10,	r8	;#0x000a
    cd5c:	1d 20       	jnz	$+60     	;abs 0xcd98

0000cd5e <.L13>:
    cd5e:	0d 4a       	mov	r10,	r13	;
    cd60:	0c 49       	mov	r9,	r12	;

0000cd62 <.LVL11>:
    cd62:	b0 12 54 d1 	call	#53588		;#0xd154

0000cd66 <.LVL12>:
    cd66:	0c 93       	cmp	#0,	r12	;r3 As==00
    cd68:	17 24       	jz	$+48     	;abs 0xcd98
    cd6a:	30 40 96 cd 	br	#0xcd96		;

0000cd6e <.L3>:
    cd6e:	3a 90 86 c0 	cmp	#49286,	r10	;#0xc086
    cd72:	04 20       	jnz	$+10     	;abs 0xcd7c

0000cd74 <.Loc.45.1>:
    cd74:	1a 49 04 00 	mov	4(r9),	r10	;
    cd78:	30 40 fe cc 	br	#0xccfe		;

0000cd7c <.L5>:
    cd7c:	3a 90 74 c0 	cmp	#49268,	r10	;#0xc074
    cd80:	be 23       	jnz	$-130    	;abs 0xccfe

0000cd82 <.Loc.45.1>:
    cd82:	1a 49 06 00 	mov	6(r9),	r10	;
    cd86:	30 40 fe cc 	br	#0xccfe		;

0000cd8a <.L6>:
    cd8a:	0d 4a       	mov	r10,	r13	;
    cd8c:	0c 49       	mov	r9,	r12	;
    cd8e:	b0 12 d6 cd 	call	#52694		;#0xcdd6

0000cd92 <.LVL15>:
    cd92:	0c 93       	cmp	#0,	r12	;r3 As==00
    cd94:	bd 27       	jz	$-132    	;abs 0xcd10

0000cd96 <.L12>:
    cd96:	38 43       	mov	#-1,	r8	;r3 As==11

0000cd98 <.L1>:
    cd98:	0c 48       	mov	r8,	r12	;
    cd9a:	30 40 88 c3 	br	#0xc388		;

0000cd9e <.L7>:
    cd9e:	3c d0 00 20 	bis	#8192,	r12	;#0x2000
    cda2:	8a 4c 06 00 	mov	r12,	6(r10)	;
    cda6:	ba f0 ff df 	and	#57343,	58(r10)	;#0xdfff, 0x003a
    cdaa:	3a 00 
    cdac:	30 40 20 cd 	br	#0xcd20		;

0000cdb0 <_write_r>:
    cdb0:	0a 12       	push	r10		;

0000cdb2 <.LCFI0>:
    cdb2:	0a 4c       	mov	r12,	r10	;
    cdb4:	0c 4d       	mov	r13,	r12	;

0000cdb6 <.LVL1>:
    cdb6:	0d 4e       	mov	r14,	r13	;

0000cdb8 <.LVL2>:
    cdb8:	82 43 04 03 	mov	#0,	&0x0304	;r3 As==00

0000cdbc <.Loc.58.1>:
    cdbc:	0e 4f       	mov	r15,	r14	;

0000cdbe <.LVL3>:
    cdbe:	b0 12 06 dc 	call	#56326		;#0xdc06

0000cdc2 <.LVL4>:
    cdc2:	3c 93       	cmp	#-1,	r12	;r3 As==11
    cdc4:	06 20       	jnz	$+14     	;abs 0xcdd2

0000cdc6 <.Loc.58.1>:
    cdc6:	1d 42 04 03 	mov	&0x0304,r13	;0x0304
    cdca:	0d 93       	cmp	#0,	r13	;r3 As==00
    cdcc:	02 24       	jz	$+6      	;abs 0xcdd2

0000cdce <.Loc.59.1>:
    cdce:	8a 4d 00 00 	mov	r13,	0(r10)	;

0000cdd2 <.L1>:
    cdd2:	3a 41       	pop	r10		;

0000cdd4 <.LVL5>:
    cdd4:	30 41       	ret			

0000cdd6 <__swsetup_r>:
    cdd6:	0a 12       	push	r10		;

0000cdd8 <.LCFI0>:
    cdd8:	09 12       	push	r9		;

0000cdda <.LCFI1>:
    cdda:	08 12       	push	r8		;

0000cddc <.LCFI2>:
    cddc:	08 4c       	mov	r12,	r8	;
    cdde:	0a 4d       	mov	r13,	r10	;

0000cde0 <.LBB2>:
    cde0:	19 42 02 02 	mov	&0x0202,r9	;0x0202
    cde4:	09 93       	cmp	#0,	r9	;r3 As==00
    cde6:	06 24       	jz	$+14     	;abs 0xcdf4

0000cde8 <.Loc.39.1>:
    cde8:	89 93 0c 00 	cmp	#0,	12(r9)	;r3 As==00, 0x000c
    cdec:	03 20       	jnz	$+8      	;abs 0xcdf4

0000cdee <.Loc.39.1>:
    cdee:	0c 49       	mov	r9,	r12	;

0000cdf0 <.LVL2>:
    cdf0:	b0 12 08 c6 	call	#50696		;#0xc608

0000cdf4 <.L2>:
    cdf4:	3a 90 98 c0 	cmp	#49304,	r10	;#0xc098
    cdf8:	13 20       	jnz	$+40     	;abs 0xce20

0000cdfa <.Loc.39.1>:
    cdfa:	1a 49 02 00 	mov	2(r9),	r10	;

0000cdfe <.L4>:
    cdfe:	1c 4a 06 00 	mov	6(r10),	r12	;
    ce02:	3c b2       	bit	#8,	r12	;r2 As==11
    ce04:	35 20       	jnz	$+108    	;abs 0xce70

0000ce06 <.Loc.47.1>:
    ce06:	3c b0 10 00 	bit	#16,	r12	;#0x0010
    ce0a:	18 20       	jnz	$+50     	;abs 0xce3c

0000ce0c <.Loc.49.1>:
    ce0c:	b8 40 09 00 	mov	#9,	0(r8)	;
    ce10:	00 00 

0000ce12 <.Loc.50.1>:
    ce12:	3c d0 40 00 	bis	#64,	r12	;#0x0040
    ce16:	8a 4c 06 00 	mov	r12,	6(r10)	;

0000ce1a <.L32>:
    ce1a:	3c 43       	mov	#-1,	r12	;r3 As==11

0000ce1c <.L1>:
    ce1c:	30 40 8a c3 	br	#0xc38a		;

0000ce20 <.L3>:
    ce20:	3a 90 86 c0 	cmp	#49286,	r10	;#0xc086
    ce24:	04 20       	jnz	$+10     	;abs 0xce2e

0000ce26 <.Loc.39.1>:
    ce26:	1a 49 04 00 	mov	4(r9),	r10	;
    ce2a:	30 40 fe cd 	br	#0xcdfe		;

0000ce2e <.L5>:
    ce2e:	3a 90 74 c0 	cmp	#49268,	r10	;#0xc074
    ce32:	e5 23       	jnz	$-52     	;abs 0xcdfe

0000ce34 <.Loc.39.1>:
    ce34:	1a 49 06 00 	mov	6(r9),	r10	;
    ce38:	30 40 fe cd 	br	#0xcdfe		;

0000ce3c <.L7>:
    ce3c:	2c b2       	bit	#4,	r12	;r2 As==10
    ce3e:	16 24       	jz	$+46     	;abs 0xce6c

0000ce40 <.Loc.56.1>:
    ce40:	1d 4a 1c 00 	mov	28(r10),r13	;0x0001c
    ce44:	0d 93       	cmp	#0,	r13	;r3 As==00
    ce46:	0a 24       	jz	$+22     	;abs 0xce5c

0000ce48 <.Loc.57.1>:
    ce48:	0c 4a       	mov	r10,	r12	;
    ce4a:	3c 50 24 00 	add	#36,	r12	;#0x0024
    ce4e:	0d 9c       	cmp	r12,	r13	;
    ce50:	03 24       	jz	$+8      	;abs 0xce58

0000ce52 <.Loc.57.1>:
    ce52:	0c 48       	mov	r8,	r12	;
    ce54:	b0 12 40 d4 	call	#54336		;#0xd440

0000ce58 <.L11>:
    ce58:	8a 43 1c 00 	mov	#0,	28(r10)	;r3 As==00, 0x001c

0000ce5c <.L10>:
    ce5c:	ba f0 db ff 	and	#65499,	6(r10)	;#0xffdb
    ce60:	06 00 

0000ce62 <.Loc.59.1>:
    ce62:	8a 43 02 00 	mov	#0,	2(r10)	;r3 As==00

0000ce66 <.Loc.60.1>:
    ce66:	9a 4a 0a 00 	mov	10(r10),0(r10)	;0x0000a
    ce6a:	00 00 

0000ce6c <.L9>:
    ce6c:	ba d2 06 00 	bis	#8,	6(r10)	;r2 As==11

0000ce70 <.L6>:
    ce70:	8a 93 0a 00 	cmp	#0,	10(r10)	;r3 As==00, 0x000a
    ce74:	0b 20       	jnz	$+24     	;abs 0xce8c

0000ce76 <.Loc.71.1>:
    ce76:	1c 4a 06 00 	mov	6(r10),	r12	;
    ce7a:	3c f0 80 02 	and	#640,	r12	;#0x0280
    ce7e:	3c 90 00 02 	cmp	#512,	r12	;#0x0200
    ce82:	04 24       	jz	$+10     	;abs 0xce8c

0000ce84 <.Loc.72.1>:
    ce84:	0d 4a       	mov	r10,	r13	;
    ce86:	0c 48       	mov	r8,	r12	;
    ce88:	b0 12 46 d3 	call	#54086		;#0xd346

0000ce8c <.L12>:
    ce8c:	1d 4a 06 00 	mov	6(r10),	r13	;
    ce90:	0c 4d       	mov	r13,	r12	;
    ce92:	5c f3       	and.b	#1,	r12	;r3 As==01
    ce94:	0c 93       	cmp	#0,	r12	;r3 As==00
    ce96:	15 24       	jz	$+44     	;abs 0xcec2

0000ce98 <.Loc.81.1>:
    ce98:	8a 43 04 00 	mov	#0,	4(r10)	;r3 As==00

0000ce9c <.Loc.82.1>:
    ce9c:	4c 43       	clr.b	r12		;
    ce9e:	1c 8a 0c 00 	sub	12(r10),r12	;0x0000c
    cea2:	8a 4c 0e 00 	mov	r12,	14(r10)	; 0x000e

0000cea6 <.L14>:
    cea6:	8a 93 0a 00 	cmp	#0,	10(r10)	;r3 As==00, 0x000a
    ceaa:	13 20       	jnz	$+40     	;abs 0xced2

0000ceac <.Loc.87.1>:
    ceac:	0c 4d       	mov	r13,	r12	;
    ceae:	7c f0 80 00 	and.b	#128,	r12	;#0x0080
    ceb2:	0c 93       	cmp	#0,	r12	;r3 As==00
    ceb4:	b3 27       	jz	$-152    	;abs 0xce1c

0000ceb6 <.Loc.90.1>:
    ceb6:	3d d0 40 00 	bis	#64,	r13	;#0x0040
    ceba:	8a 4d 06 00 	mov	r13,	6(r10)	;
    cebe:	30 40 1a ce 	br	#0xce1a		;

0000cec2 <.L13>:
    cec2:	2d b3       	bit	#2,	r13	;r3 As==10
    cec4:	02 20       	jnz	$+6      	;abs 0xceca

0000cec6 <.Loc.85.1>:
    cec6:	1c 4a 0c 00 	mov	12(r10),r12	;0x0000c

0000ceca <.L15>:
    ceca:	8a 4c 04 00 	mov	r12,	4(r10)	;
    cece:	30 40 a6 ce 	br	#0xcea6		;

0000ced2 <.L16>:
    ced2:	4c 43       	clr.b	r12		;
    ced4:	30 40 1c ce 	br	#0xce1c		;

0000ced8 <_close_r>:
    ced8:	0a 12       	push	r10		;

0000ceda <.LCFI0>:
    ceda:	0a 4c       	mov	r12,	r10	;

0000cedc <.Loc.52.1>:
    cedc:	82 43 04 03 	mov	#0,	&0x0304	;r3 As==00

0000cee0 <.Loc.53.1>:
    cee0:	0c 4d       	mov	r13,	r12	;

0000cee2 <.LVL1>:
    cee2:	b0 12 c0 db 	call	#56256		;#0xdbc0

0000cee6 <.LVL2>:
    cee6:	3c 93       	cmp	#-1,	r12	;r3 As==11
    cee8:	06 20       	jnz	$+14     	;abs 0xcef6

0000ceea <.Loc.53.1>:
    ceea:	1d 42 04 03 	mov	&0x0304,r13	;0x0304
    ceee:	0d 93       	cmp	#0,	r13	;r3 As==00
    cef0:	02 24       	jz	$+6      	;abs 0xcef6

0000cef2 <.Loc.54.1>:
    cef2:	8a 4d 00 00 	mov	r13,	0(r10)	;

0000cef6 <.L1>:
    cef6:	3a 41       	pop	r10		;

0000cef8 <.LVL3>:
    cef8:	30 41       	ret			

0000cefa <_fclose_r>:
    cefa:	0a 12       	push	r10		;

0000cefc <.LCFI0>:
    cefc:	09 12       	push	r9		;

0000cefe <.LCFI1>:
    cefe:	08 12       	push	r8		;

0000cf00 <.LCFI2>:
    cf00:	09 4c       	mov	r12,	r9	;
    cf02:	0a 4d       	mov	r13,	r10	;

0000cf04 <.Loc.74.1>:
    cf04:	0d 93       	cmp	#0,	r13	;r3 As==00
    cf06:	04 20       	jnz	$+10     	;abs 0xcf10

0000cf08 <.L8>:
    cf08:	48 43       	clr.b	r8		;

0000cf0a <.L1>:
    cf0a:	0c 48       	mov	r8,	r12	;
    cf0c:	30 40 8a c3 	br	#0xc38a		;

0000cf10 <.L2>:
    cf10:	0c 93       	cmp	#0,	r12	;r3 As==00
    cf12:	05 24       	jz	$+12     	;abs 0xcf1e

0000cf14 <.Loc.77.1>:
    cf14:	8c 93 0c 00 	cmp	#0,	12(r12)	;r3 As==00, 0x000c
    cf18:	02 20       	jnz	$+6      	;abs 0xcf1e

0000cf1a <.Loc.77.1>:
    cf1a:	b0 12 08 c6 	call	#50696		;#0xc608

0000cf1e <.L4>:
    cf1e:	3a 90 98 c0 	cmp	#49304,	r10	;#0xc098
    cf22:	3f 20       	jnz	$+128    	;abs 0xcfa2

0000cf24 <.Loc.77.1>:
    cf24:	1a 49 02 00 	mov	2(r9),	r10	;

0000cf28 <.L6>:
    cf28:	8a 93 06 00 	cmp	#0,	6(r10)	;r3 As==00
    cf2c:	ed 27       	jz	$-36     	;abs 0xcf08

0000cf2e <.Loc.104.1>:
    cf2e:	0d 4a       	mov	r10,	r13	;
    cf30:	0c 49       	mov	r9,	r12	;
    cf32:	b0 12 be cf 	call	#53182		;#0xcfbe

0000cf36 <.LVL5>:
    cf36:	08 4c       	mov	r12,	r8	;

0000cf38 <.LVL6>:
    cf38:	1e 4a 1a 00 	mov	26(r10),r14	;0x0001a
    cf3c:	0e 93       	cmp	#0,	r14	;r3 As==00
    cf3e:	07 24       	jz	$+16     	;abs 0xcf4e

0000cf40 <.Loc.106.1>:
    cf40:	1d 4a 12 00 	mov	18(r10),r13	;0x00012
    cf44:	0c 49       	mov	r9,	r12	;
    cf46:	8e 12       	call	r14		;

0000cf48 <.LVL7>:
    cf48:	0c 93       	cmp	#0,	r12	;r3 As==00
    cf4a:	01 34       	jge	$+4      	;abs 0xcf4e

0000cf4c <.Loc.107.1>:
    cf4c:	38 43       	mov	#-1,	r8	;r3 As==11

0000cf4e <.L9>:
    cf4e:	1c 4a 06 00 	mov	6(r10),	r12	;
    cf52:	7c f0 80 00 	and.b	#128,	r12	;#0x0080
    cf56:	0c 93       	cmp	#0,	r12	;r3 As==00
    cf58:	05 24       	jz	$+12     	;abs 0xcf64

0000cf5a <.Loc.109.1>:
    cf5a:	1d 4a 0a 00 	mov	10(r10),r13	;0x0000a
    cf5e:	0c 49       	mov	r9,	r12	;
    cf60:	b0 12 40 d4 	call	#54336		;#0xd440

0000cf64 <.L10>:
    cf64:	1d 4a 1c 00 	mov	28(r10),r13	;0x0001c
    cf68:	0d 93       	cmp	#0,	r13	;r3 As==00
    cf6a:	0a 24       	jz	$+22     	;abs 0xcf80

0000cf6c <.Loc.111.1>:
    cf6c:	0c 4a       	mov	r10,	r12	;
    cf6e:	3c 50 24 00 	add	#36,	r12	;#0x0024
    cf72:	0d 9c       	cmp	r12,	r13	;
    cf74:	03 24       	jz	$+8      	;abs 0xcf7c

0000cf76 <.Loc.111.1>:
    cf76:	0c 49       	mov	r9,	r12	;
    cf78:	b0 12 40 d4 	call	#54336		;#0xd440

0000cf7c <.L12>:
    cf7c:	8a 43 1c 00 	mov	#0,	28(r10)	;r3 As==00, 0x001c

0000cf80 <.L11>:
    cf80:	1d 4a 28 00 	mov	40(r10),r13	;0x00028
    cf84:	0d 93       	cmp	#0,	r13	;r3 As==00
    cf86:	05 24       	jz	$+12     	;abs 0xcf92

0000cf88 <.Loc.113.1>:
    cf88:	0c 49       	mov	r9,	r12	;
    cf8a:	b0 12 40 d4 	call	#54336		;#0xd440

0000cf8e <.LVL11>:
    cf8e:	8a 43 28 00 	mov	#0,	40(r10)	;r3 As==00, 0x0028

0000cf92 <.L13>:
    cf92:	b0 12 32 c7 	call	#50994		;#0xc732

0000cf96 <.LVL12>:
    cf96:	8a 43 06 00 	mov	#0,	6(r10)	;r3 As==00

0000cf9a <.Loc.122.1>:
    cf9a:	b0 12 34 c7 	call	#50996		;#0xc734

0000cf9e <.LVL13>:
    cf9e:	30 40 0a cf 	br	#0xcf0a		;

0000cfa2 <.L5>:
    cfa2:	3a 90 86 c0 	cmp	#49286,	r10	;#0xc086
    cfa6:	04 20       	jnz	$+10     	;abs 0xcfb0

0000cfa8 <.Loc.77.1>:
    cfa8:	1a 49 04 00 	mov	4(r9),	r10	;
    cfac:	30 40 28 cf 	br	#0xcf28		;

0000cfb0 <.L7>:
    cfb0:	3a 90 74 c0 	cmp	#49268,	r10	;#0xc074
    cfb4:	b9 23       	jnz	$-140    	;abs 0xcf28

0000cfb6 <.Loc.77.1>:
    cfb6:	1a 49 06 00 	mov	6(r9),	r10	;
    cfba:	30 40 28 cf 	br	#0xcf28		;

0000cfbe <__sflush_r>:
    cfbe:	0a 12       	push	r10		;

0000cfc0 <.LCFI0>:
    cfc0:	09 12       	push	r9		;

0000cfc2 <.LCFI1>:
    cfc2:	08 12       	push	r8		;

0000cfc4 <.LCFI2>:
    cfc4:	07 12       	push	r7		;

0000cfc6 <.LCFI3>:
    cfc6:	06 12       	push	r6		;

0000cfc8 <.LCFI4>:
    cfc8:	21 83       	decd	r1		;

0000cfca <.LCFI5>:
    cfca:	09 4c       	mov	r12,	r9	;
    cfcc:	0a 4d       	mov	r13,	r10	;

0000cfce <.Loc.112.1>:
    cfce:	1c 4d 06 00 	mov	6(r13),	r12	;

0000cfd2 <.LVL1>:
    cfd2:	08 4c       	mov	r12,	r8	;
    cfd4:	78 f2       	and.b	#8,	r8	;r2 As==11
    cfd6:	08 93       	cmp	#0,	r8	;r3 As==00
    cfd8:	93 20       	jnz	$+296    	;abs 0xd100

0000cfda <.Loc.119.1>:
    cfda:	06 4c       	mov	r12,	r6	;
    cfdc:	36 d0 00 08 	bis	#2048,	r6	;#0x0800
    cfe0:	8d 46 06 00 	mov	r6,	6(r13)	;

0000cfe4 <.Loc.129.1>:
    cfe4:	4d 43       	clr.b	r13		;

0000cfe6 <.LVL2>:
    cfe6:	1d 9a 02 00 	cmp	2(r10),	r13	;
    cfea:	08 38       	jl	$+18     	;abs 0xcffc

0000cfec <.Loc.129.1>:
    cfec:	1d 9a 22 00 	cmp	34(r10),r13	;0x00022
    cff0:	05 38       	jl	$+12     	;abs 0xcffc

0000cff2 <.L5>:
    cff2:	48 43       	clr.b	r8		;

0000cff4 <.L1>:
    cff4:	0c 48       	mov	r8,	r12	;
    cff6:	21 53       	incd	r1		;
    cff8:	30 40 86 c3 	br	#0xc386		;

0000cffc <.L3>:
    cffc:	1b 4a 18 00 	mov	24(r10),r11	;0x00018
    d000:	0b 93       	cmp	#0,	r11	;r3 As==00
    d002:	f7 27       	jz	$-16     	;abs 0xcff2

0000d004 <.LBB2>:
    d004:	27 49       	mov	@r9,	r7	;

0000d006 <.LVL5>:
    d006:	89 43 00 00 	mov	#0,	0(r9)	;r3 As==00

0000d00a <.Loc.144.1>:
    d00a:	3c b0 00 10 	bit	#4096,	r12	;#0x1000
    d00e:	5f 24       	jz	$+192    	;abs 0xd0ce

0000d010 <.Loc.145.1>:
    d010:	1c 4a 2e 00 	mov	46(r10),r12	;0x0002e

0000d014 <.LVL6>:
    d014:	1d 4a 30 00 	mov	48(r10),r13	;0x00030

0000d018 <.L7>:
    d018:	ea b2 06 00 	bit.b	#4,	6(r10)	;r2 As==10
    d01c:	15 24       	jz	$+44     	;abs 0xd048

0000d01e <.Loc.173.1>:
    d01e:	16 4a 02 00 	mov	2(r10),	r6	;
    d022:	0e 46       	mov	r6,	r14	;
    d024:	3e b0 00 80 	bit	#32768,	r14	;#0x8000
    d028:	0f 7f       	subc	r15,	r15	;
    d02a:	3f e3       	inv	r15		;
    d02c:	0c 8e       	sub	r14,	r12	;
    d02e:	0d 7f       	subc	r15,	r13	;

0000d030 <.Loc.174.1>:
    d030:	8a 93 1c 00 	cmp	#0,	28(r10)	;r3 As==00, 0x001c
    d034:	09 24       	jz	$+20     	;abs 0xd048

0000d036 <.Loc.175.1>:
    d036:	16 4a 22 00 	mov	34(r10),r6	;0x00022
    d03a:	0e 46       	mov	r6,	r14	;
    d03c:	3e b0 00 80 	bit	#32768,	r14	;#0x8000
    d040:	0f 7f       	subc	r15,	r15	;
    d042:	3f e3       	inv	r15		;
    d044:	0c 8e       	sub	r14,	r12	;
    d046:	0d 7f       	subc	r15,	r13	;

0000d048 <.L10>:
    d048:	81 43 00 00 	mov	#0,	0(r1)	;r3 As==00
    d04c:	0e 4c       	mov	r12,	r14	;
    d04e:	0f 4d       	mov	r13,	r15	;
    d050:	1d 4a 12 00 	mov	18(r10),r13	;0x00012
    d054:	0c 49       	mov	r9,	r12	;

0000d056 <.LVL10>:
    d056:	16 4a 18 00 	mov	24(r10),r6	;0x00018
    d05a:	86 12       	call	r6		;

0000d05c <.LVL11>:
    d05c:	3c 93       	cmp	#-1,	r12	;r3 As==11
    d05e:	0b 20       	jnz	$+24     	;abs 0xd076
    d060:	3d 93       	cmp	#-1,	r13	;r3 As==11
    d062:	09 20       	jnz	$+20     	;abs 0xd076

0000d064 <.Loc.184.1>:
    d064:	2e 49       	mov	@r9,	r14	;
    d066:	0e 93       	cmp	#0,	r14	;r3 As==00
    d068:	06 24       	jz	$+14     	;abs 0xd076

0000d06a <.Loc.185.1>:
    d06a:	3e 90 1d 00 	cmp	#29,	r14	;#0x001d
    d06e:	03 24       	jz	$+8      	;abs 0xd076

0000d070 <.Loc.185.1>:
    d070:	3e 90 16 00 	cmp	#22,	r14	;#0x0016
    d074:	62 20       	jnz	$+198    	;abs 0xd13a

0000d076 <.L11>:
    d076:	1e 4a 06 00 	mov	6(r10),	r14	;
    d07a:	0f 4e       	mov	r14,	r15	;
    d07c:	3f f0 ff f7 	and	#63487,	r15	;#0xf7ff
    d080:	8a 4f 06 00 	mov	r15,	6(r10)	;

0000d084 <.Loc.192.1>:
    d084:	8a 43 02 00 	mov	#0,	2(r10)	;r3 As==00

0000d088 <.Loc.193.1>:
    d088:	9a 4a 0a 00 	mov	10(r10),0(r10)	;0x0000a
    d08c:	00 00 

0000d08e <.Loc.194.1>:
    d08e:	3e b0 00 10 	bit	#4096,	r14	;#0x1000
    d092:	0b 24       	jz	$+24     	;abs 0xd0aa

0000d094 <.Loc.194.1>:
    d094:	3c 93       	cmp	#-1,	r12	;r3 As==11
    d096:	05 20       	jnz	$+12     	;abs 0xd0a2
    d098:	3d 93       	cmp	#-1,	r13	;r3 As==11
    d09a:	03 20       	jnz	$+8      	;abs 0xd0a2

0000d09c <.Loc.194.1>:
    d09c:	89 93 00 00 	cmp	#0,	0(r9)	;r3 As==00
    d0a0:	04 20       	jnz	$+10     	;abs 0xd0aa

0000d0a2 <.L14>:
    d0a2:	8a 4c 2e 00 	mov	r12,	46(r10)	; 0x002e
    d0a6:	8a 4d 30 00 	mov	r13,	48(r10)	; 0x0030

0000d0aa <.L13>:
    d0aa:	89 47 00 00 	mov	r7,	0(r9)	;

0000d0ae <.Loc.197.1>:
    d0ae:	1d 4a 1c 00 	mov	28(r10),r13	;0x0001c

0000d0b2 <.LVL12>:
    d0b2:	0d 93       	cmp	#0,	r13	;r3 As==00
    d0b4:	9e 27       	jz	$-194    	;abs 0xcff2

0000d0b6 <.Loc.198.1>:
    d0b6:	0c 4a       	mov	r10,	r12	;
    d0b8:	3c 50 24 00 	add	#36,	r12	;#0x0024
    d0bc:	0d 9c       	cmp	r12,	r13	;
    d0be:	03 24       	jz	$+8      	;abs 0xd0c6

0000d0c0 <.Loc.198.1>:
    d0c0:	0c 49       	mov	r9,	r12	;
    d0c2:	b0 12 40 d4 	call	#54336		;#0xd440

0000d0c6 <.L15>:
    d0c6:	8a 43 1c 00 	mov	#0,	28(r10)	;r3 As==00, 0x001c
    d0ca:	30 40 f4 cf 	br	#0xcff4		;

0000d0ce <.L6>:
    d0ce:	1d 4a 12 00 	mov	18(r10),r13	;0x00012
    d0d2:	91 43 00 00 	mov	#1,	0(r1)	;r3 As==01
    d0d6:	4e 43       	clr.b	r14		;
    d0d8:	4f 43       	clr.b	r15		;
    d0da:	0c 49       	mov	r9,	r12	;

0000d0dc <.LVL15>:
    d0dc:	8b 12       	call	r11		;

0000d0de <.LVL16>:
    d0de:	3c 93       	cmp	#-1,	r12	;r3 As==11
    d0e0:	9b 23       	jnz	$-200    	;abs 0xd018
    d0e2:	3d 93       	cmp	#-1,	r13	;r3 As==11
    d0e4:	99 23       	jnz	$-204    	;abs 0xd018

0000d0e6 <.Loc.156.1>:
    d0e6:	2e 49       	mov	@r9,	r14	;
    d0e8:	0e 93       	cmp	#0,	r14	;r3 As==00
    d0ea:	96 27       	jz	$-210    	;abs 0xd018

0000d0ec <.LBB3>:
    d0ec:	3e 90 1d 00 	cmp	#29,	r14	;#0x001d
    d0f0:	03 24       	jz	$+8      	;abs 0xd0f8

0000d0f2 <.Loc.159.1>:
    d0f2:	3e 90 16 00 	cmp	#22,	r14	;#0x0016
    d0f6:	21 20       	jnz	$+68     	;abs 0xd13a

0000d0f8 <.L8>:
    d0f8:	89 47 00 00 	mov	r7,	0(r9)	;
    d0fc:	30 40 f4 cf 	br	#0xcff4		;

0000d100 <.L2>:
    d100:	18 4d 0a 00 	mov	10(r13),r8	;0x0000a

0000d104 <.LVL20>:
    d104:	08 93       	cmp	#0,	r8	;r3 As==00
    d106:	75 27       	jz	$-276    	;abs 0xcff2

0000d108 <.Loc.213.1>:
    d108:	27 4d       	mov	@r13,	r7	;
    d10a:	07 88       	sub	r8,	r7	;

0000d10c <.LVL21>:
    d10c:	8d 48 00 00 	mov	r8,	0(r13)	;

0000d110 <.Loc.221.1>:
    d110:	3c b0 03 00 	bit	#3,	r12	;
    d114:	18 20       	jnz	$+50     	;abs 0xd146

0000d116 <.Loc.221.1>:
    d116:	1c 4d 0c 00 	mov	12(r13),r12	;0x0000c

0000d11a <.L16>:
    d11a:	8a 4c 04 00 	mov	r12,	4(r10)	;

0000d11e <.L17>:
    d11e:	4f 43       	clr.b	r15		;
    d120:	0f 97       	cmp	r7,	r15	;
    d122:	67 37       	jge	$-304    	;abs 0xcff2

0000d124 <.Loc.225.1>:
    d124:	0f 47       	mov	r7,	r15	;
    d126:	0e 48       	mov	r8,	r14	;
    d128:	1d 4a 12 00 	mov	18(r10),r13	;0x00012
    d12c:	0c 49       	mov	r9,	r12	;
    d12e:	16 4a 16 00 	mov	22(r10),r6	;0x00016
    d132:	86 12       	call	r6		;

0000d134 <.LVL24>:
    d134:	4d 43       	clr.b	r13		;
    d136:	0d 9c       	cmp	r12,	r13	;
    d138:	09 38       	jl	$+20     	;abs 0xd14c

0000d13a <.L48>:
    d13a:	ba d0 40 00 	bis	#64,	6(r10)	;#0x0040
    d13e:	06 00 

0000d140 <.Loc.229.1>:
    d140:	38 43       	mov	#-1,	r8	;r3 As==11
    d142:	30 40 f4 cf 	br	#0xcff4		;

0000d146 <.L20>:
    d146:	4c 43       	clr.b	r12		;

0000d148 <.LVL27>:
    d148:	30 40 1a d1 	br	#0xd11a		;

0000d14c <.L18>:
    d14c:	08 5c       	add	r12,	r8	;

0000d14e <.Loc.232.1>:
    d14e:	07 8c       	sub	r12,	r7	;
    d150:	30 40 1e d1 	br	#0xd11e		;

0000d154 <_fflush_r>:
    d154:	0a 12       	push	r10		;

0000d156 <.LCFI6>:
    d156:	21 83       	decd	r1		;

0000d158 <.LCFI7>:
    d158:	0a 4c       	mov	r12,	r10	;

0000d15a <.Loc.271.1>:
    d15a:	8d 93 0a 00 	cmp	#0,	10(r13)	;r3 As==00, 0x000a
    d15e:	04 20       	jnz	$+10     	;abs 0xd168

0000d160 <.L56>:
    d160:	4c 43       	clr.b	r12		;

0000d162 <.L49>:
    d162:	21 53       	incd	r1		;
    d164:	3a 41       	pop	r10		;

0000d166 <.LVL34>:
    d166:	30 41       	ret			

0000d168 <.L50>:
    d168:	0c 93       	cmp	#0,	r12	;r3 As==00
    d16a:	08 24       	jz	$+18     	;abs 0xd17c

0000d16c <.Loc.275.1>:
    d16c:	8c 93 0c 00 	cmp	#0,	12(r12)	;r3 As==00, 0x000c
    d170:	05 20       	jnz	$+12     	;abs 0xd17c

0000d172 <.Loc.275.1>:
    d172:	81 4d 00 00 	mov	r13,	0(r1)	;
    d176:	b0 12 08 c6 	call	#50696		;#0xc608

0000d17a <.LVL36>:
    d17a:	2d 41       	mov	@r1,	r13	;

0000d17c <.L52>:
    d17c:	3d 90 98 c0 	cmp	#49304,	r13	;#0xc098
    d180:	0a 20       	jnz	$+22     	;abs 0xd196

0000d182 <.Loc.275.1>:
    d182:	1d 4a 02 00 	mov	2(r10),	r13	;

0000d186 <.L54>:
    d186:	8d 93 06 00 	cmp	#0,	6(r13)	;r3 As==00
    d18a:	ea 27       	jz	$-42     	;abs 0xd160

0000d18c <.Loc.281.1>:
    d18c:	0c 4a       	mov	r10,	r12	;
    d18e:	b0 12 be cf 	call	#53182		;#0xcfbe

0000d192 <.LVL38>:
    d192:	30 40 62 d1 	br	#0xd162		;

0000d196 <.L53>:
    d196:	3d 90 86 c0 	cmp	#49286,	r13	;#0xc086
    d19a:	04 20       	jnz	$+10     	;abs 0xd1a4

0000d19c <.Loc.275.1>:
    d19c:	1d 4a 04 00 	mov	4(r10),	r13	;

0000d1a0 <.LVL40>:
    d1a0:	30 40 86 d1 	br	#0xd186		;

0000d1a4 <.L55>:
    d1a4:	3d 90 74 c0 	cmp	#49268,	r13	;#0xc074
    d1a8:	ee 23       	jnz	$-34     	;abs 0xd186

0000d1aa <.Loc.275.1>:
    d1aa:	1d 4a 06 00 	mov	6(r10),	r13	;

0000d1ae <.LVL42>:
    d1ae:	30 40 86 d1 	br	#0xd186		;

0000d1b2 <__fputwc>:
    d1b2:	0a 12       	push	r10		;

0000d1b4 <.LCFI0>:
    d1b4:	09 12       	push	r9		;

0000d1b6 <.LCFI1>:
    d1b6:	08 12       	push	r8		;

0000d1b8 <.LCFI2>:
    d1b8:	07 12       	push	r7		;

0000d1ba <.LCFI3>:
    d1ba:	06 12       	push	r6		;

0000d1bc <.LCFI4>:
    d1bc:	05 12       	push	r5		;

0000d1be <.LCFI5>:
    d1be:	21 82       	sub	#4,	r1	;r2 As==10

0000d1c0 <.LCFI6>:
    d1c0:	06 4c       	mov	r12,	r6	;
    d1c2:	08 4d       	mov	r13,	r8	;
    d1c4:	07 4e       	mov	r14,	r7	;
    d1c6:	0a 4f       	mov	r15,	r10	;

0000d1c8 <.Loc.194.1>:
    d1c8:	b0 12 a2 d2 	call	#53922		;#0xd2a2

0000d1cc <.LVL1>:
    d1cc:	1c 93       	cmp	#1,	r12	;r3 As==01
    d1ce:	15 20       	jnz	$+44     	;abs 0xd1fa

0000d1d0 <.Loc.194.1>:
    d1d0:	0e 48       	mov	r8,	r14	;
    d1d2:	3e 53       	add	#-1,	r14	;r3 As==11
    d1d4:	0d 47       	mov	r7,	r13	;
    d1d6:	3d 63       	addc	#-1,	r13	;r3 As==11
    d1d8:	0d 93       	cmp	#0,	r13	;r3 As==00
    d1da:	0f 20       	jnz	$+32     	;abs 0xd1fa
    d1dc:	7d 40 fe 00 	mov.b	#254,	r13	;#0x00fe
    d1e0:	0d 9e       	cmp	r14,	r13	;
    d1e2:	0b 28       	jnc	$+24     	;abs 0xd1fa

0000d1e4 <.Loc.201.1>:
    d1e4:	c1 48 03 00 	mov.b	r8,	3(r1)	;

0000d1e8 <.LVL2>:
    d1e8:	09 4c       	mov	r12,	r9	;

0000d1ea <.L4>:
    d1ea:	47 43       	clr.b	r7		;

0000d1ec <.LBB4>:
    d1ec:	35 40 d8 cc 	mov	#52440,	r5	;#0xccd8

0000d1f0 <.L6>:
    d1f0:	07 99       	cmp	r9,	r7	;
    d1f2:	19 20       	jnz	$+52     	;abs 0xd226

0000d1f4 <.Loc.217.1>:
    d1f4:	0c 48       	mov	r8,	r12	;
    d1f6:	30 40 20 d2 	br	#0xd220		;

0000d1fa <.L2>:
    d1fa:	0e 4a       	mov	r10,	r14	;
    d1fc:	3e 50 34 00 	add	#52,	r14	;#0x0034
    d200:	81 4e 00 00 	mov	r14,	0(r1)	;
    d204:	0e 48       	mov	r8,	r14	;
    d206:	0f 47       	mov	r7,	r15	;
    d208:	0d 41       	mov	r1,	r13	;
    d20a:	3d 50 03 00 	add	#3,	r13	;
    d20e:	0c 46       	mov	r6,	r12	;
    d210:	b0 12 2a da 	call	#55850		;#0xda2a

0000d214 <.LVL6>:
    d214:	09 4c       	mov	r12,	r9	;

0000d216 <.LVL7>:
    d216:	3c 93       	cmp	#-1,	r12	;r3 As==11
    d218:	e8 23       	jnz	$-46     	;abs 0xd1ea

0000d21a <.Loc.208.1>:
    d21a:	ba d0 40 00 	bis	#64,	6(r10)	;#0x0040
    d21e:	06 00 

0000d220 <.L1>:
    d220:	21 52       	add	#4,	r1	;r2 As==10
    d222:	30 40 84 c3 	br	#0xc384		;

0000d226 <.L10>:
    d226:	7c 40 03 00 	mov.b	#3,	r12	;
    d22a:	0c 51       	add	r1,	r12	;
    d22c:	0c 57       	add	r7,	r12	;
    d22e:	6d 4c       	mov.b	@r12,	r13	;

0000d230 <.LBB8>:
    d230:	1c 4a 04 00 	mov	4(r10),	r12	;
    d234:	3c 53       	add	#-1,	r12	;r3 As==11
    d236:	8a 4c 04 00 	mov	r12,	4(r10)	;
    d23a:	0c 93       	cmp	#0,	r12	;r3 As==00
    d23c:	06 34       	jge	$+14     	;abs 0xd24a
    d23e:	1c 9a 0e 00 	cmp	14(r10),r12	;0x0000e
    d242:	0d 38       	jl	$+28     	;abs 0xd25e
    d244:	3d 90 0a 00 	cmp	#10,	r13	;#0x000a
    d248:	0a 24       	jz	$+22     	;abs 0xd25e

0000d24a <.L7>:
    d24a:	2c 4a       	mov	@r10,	r12	;
    d24c:	0e 4c       	mov	r12,	r14	;
    d24e:	1e 53       	inc	r14		;
    d250:	8a 4e 00 00 	mov	r14,	0(r10)	;
    d254:	cc 4d 00 00 	mov.b	r13,	0(r12)	;

0000d258 <.L9>:
    d258:	17 53       	inc	r7		;
    d25a:	30 40 f0 d1 	br	#0xd1f0		;

0000d25e <.L8>:
    d25e:	0e 4a       	mov	r10,	r14	;
    d260:	0c 46       	mov	r6,	r12	;
    d262:	85 12       	call	r5		;

0000d264 <.LBE9>:
    d264:	3c 93       	cmp	#-1,	r12	;r3 As==11
    d266:	f8 23       	jnz	$-14     	;abs 0xd258
    d268:	30 40 20 d2 	br	#0xd220		;

0000d26c <_fputwc_r>:
    d26c:	0a 12       	push	r10		;

0000d26e <.LCFI7>:
    d26e:	0a 4d       	mov	r13,	r10	;
    d270:	0b 4e       	mov	r14,	r11	;

0000d272 <.Loc.229.1>:
    d272:	1e 4f 06 00 	mov	6(r15),	r14	;
    d276:	3e b0 00 20 	bit	#8192,	r14	;#0x2000
    d27a:	0a 20       	jnz	$+22     	;abs 0xd290

0000d27c <.Loc.229.1>:
    d27c:	3e d0 00 20 	bis	#8192,	r14	;#0x2000
    d280:	8f 4e 06 00 	mov	r14,	6(r15)	;
    d284:	1d 4f 3a 00 	mov	58(r15),r13	;0x0003a

0000d288 <.LVL15>:
    d288:	3d d0 00 20 	bis	#8192,	r13	;#0x2000
    d28c:	8f 4d 3a 00 	mov	r13,	58(r15)	; 0x003a

0000d290 <.L17>:
    d290:	0d 4a       	mov	r10,	r13	;
    d292:	0e 4b       	mov	r11,	r14	;
    d294:	b0 12 b2 d1 	call	#53682		;#0xd1b2

0000d298 <.LVL16>:
    d298:	3a 41       	pop	r10		;
    d29a:	30 41       	ret			

0000d29c <__locale_charset>:
    d29c:	3c 40 7c 02 	mov	#636,	r12	;#0x027c
    d2a0:	30 41       	ret			

0000d2a2 <__locale_mb_cur_max>:
    d2a2:	1c 42 9c 02 	mov	&0x029c,r12	;0x029c
    d2a6:	30 41       	ret			

0000d2a8 <_lseek_r>:
    d2a8:	0a 12       	push	r10		;

0000d2aa <.LCFI0>:
    d2aa:	0a 4c       	mov	r12,	r10	;
    d2ac:	0c 4d       	mov	r13,	r12	;

0000d2ae <.LVL1>:
    d2ae:	0d 4e       	mov	r14,	r13	;

0000d2b0 <.LVL2>:
    d2b0:	0e 4f       	mov	r15,	r14	;

0000d2b2 <.LVL3>:
    d2b2:	82 43 04 03 	mov	#0,	&0x0304	;r3 As==00

0000d2b6 <.Loc.58.1>:
    d2b6:	1f 41 04 00 	mov	4(r1),	r15	;
    d2ba:	b0 12 ea db 	call	#56298		;#0xdbea

0000d2be <.LVL4>:
    d2be:	3c 93       	cmp	#-1,	r12	;r3 As==11
    d2c0:	08 20       	jnz	$+18     	;abs 0xd2d2
    d2c2:	3d 93       	cmp	#-1,	r13	;r3 As==11
    d2c4:	06 20       	jnz	$+14     	;abs 0xd2d2

0000d2c6 <.Loc.58.1>:
    d2c6:	1e 42 04 03 	mov	&0x0304,r14	;0x0304
    d2ca:	0e 93       	cmp	#0,	r14	;r3 As==00
    d2cc:	02 24       	jz	$+6      	;abs 0xd2d2

0000d2ce <.Loc.59.1>:
    d2ce:	8a 4e 00 00 	mov	r14,	0(r10)	;

0000d2d2 <.L1>:
    d2d2:	3a 41       	pop	r10		;

0000d2d4 <.LVL5>:
    d2d4:	30 41       	ret			

0000d2d6 <__swhatbuf_r>:
    d2d6:	0a 12       	push	r10		;

0000d2d8 <.LCFI0>:
    d2d8:	09 12       	push	r9		;

0000d2da <.LCFI1>:
    d2da:	08 12       	push	r8		;

0000d2dc <.LCFI2>:
    d2dc:	31 80 3c 00 	sub	#60,	r1	;#0x003c

0000d2e0 <.LCFI3>:
    d2e0:	08 4d       	mov	r13,	r8	;
    d2e2:	0a 4e       	mov	r14,	r10	;
    d2e4:	09 4f       	mov	r15,	r9	;

0000d2e6 <.Loc.98.1>:
    d2e6:	1d 4d 08 00 	mov	8(r13),	r13	;

0000d2ea <.LVL2>:
    d2ea:	0d 93       	cmp	#0,	r13	;r3 As==00
    d2ec:	0d 34       	jge	$+28     	;abs 0xd308

0000d2ee <.L5>:
    d2ee:	89 43 00 00 	mov	#0,	0(r9)	;r3 As==00

0000d2f2 <.Loc.103.1>:
    d2f2:	1c 48 06 00 	mov	6(r8),	r12	;
    d2f6:	7c f0 80 00 	and.b	#128,	r12	;#0x0080
    d2fa:	0c 93       	cmp	#0,	r12	;r3 As==00
    d2fc:	1c 20       	jnz	$+58     	;abs 0xd336

0000d2fe <.Loc.106.1>:
    d2fe:	ba 40 00 01 	mov	#256,	0(r10)	;#0x0100
    d302:	00 00 
    d304:	30 40 3e d3 	br	#0xd33e		;

0000d308 <.L2>:
    d308:	0e 41       	mov	r1,	r14	;
    d30a:	b0 12 c0 da 	call	#56000		;#0xdac0

0000d30e <.LVL5>:
    d30e:	0c 93       	cmp	#0,	r12	;r3 As==00
    d310:	ee 3b       	jl	$-34     	;abs 0xd2ee

0000d312 <.Loc.111.1>:
    d312:	1d 41 04 00 	mov	4(r1),	r13	;
    d316:	3d f0 00 f0 	and	#61440,	r13	;#0xf000
    d31a:	5c 43       	mov.b	#1,	r12	;r3 As==01
    d31c:	3d 90 00 20 	cmp	#8192,	r13	;#0x2000
    d320:	01 24       	jz	$+4      	;abs 0xd324
    d322:	4c 43       	clr.b	r12		;

0000d324 <.L8>:
    d324:	89 4c 00 00 	mov	r12,	0(r9)	;

0000d328 <.Loc.125.1>:
    d328:	ba 40 00 01 	mov	#256,	0(r10)	;#0x0100
    d32c:	00 00 

0000d32e <.Loc.126.1>:
    d32e:	3c 40 00 08 	mov	#2048,	r12	;#0x0800
    d332:	30 40 3e d3 	br	#0xd33e		;

0000d336 <.L3>:
    d336:	ba 40 40 00 	mov	#64,	0(r10)	;#0x0040
    d33a:	00 00 
    d33c:	4c 43       	clr.b	r12		;

0000d33e <.L1>:
    d33e:	31 50 3c 00 	add	#60,	r1	;#0x003c
    d342:	30 40 8a c3 	br	#0xc38a		;

0000d346 <__smakebuf_r>:
    d346:	0a 12       	push	r10		;

0000d348 <.LCFI4>:
    d348:	09 12       	push	r9		;

0000d34a <.LCFI5>:
    d34a:	08 12       	push	r8		;

0000d34c <.LCFI6>:
    d34c:	21 82       	sub	#4,	r1	;r2 As==10

0000d34e <.LCFI7>:
    d34e:	09 4c       	mov	r12,	r9	;
    d350:	0a 4d       	mov	r13,	r10	;

0000d352 <.Loc.47.1>:
    d352:	ed b3 06 00 	bit.b	#2,	6(r13)	;r3 As==10
    d356:	0c 24       	jz	$+26     	;abs 0xd370

0000d358 <.L23>:
    d358:	0c 4a       	mov	r10,	r12	;
    d35a:	3c 50 27 00 	add	#39,	r12	;#0x0027
    d35e:	8a 4c 00 00 	mov	r12,	0(r10)	;
    d362:	8a 4c 0a 00 	mov	r12,	10(r10)	; 0x000a

0000d366 <.Loc.60.1>:
    d366:	9a 43 0c 00 	mov	#1,	12(r10)	;r3 As==01, 0x000c

0000d36a <.L12>:
    d36a:	21 52       	add	#4,	r1	;r2 As==10
    d36c:	30 40 8a c3 	br	#0xc38a		;

0000d370 <.L13>:
    d370:	0f 41       	mov	r1,	r15	;
    d372:	2f 53       	incd	r15		;
    d374:	0e 41       	mov	r1,	r14	;
    d376:	b0 12 d6 d2 	call	#53974		;#0xd2d6

0000d37a <.LVL10>:
    d37a:	08 4c       	mov	r12,	r8	;

0000d37c <.Loc.54.1>:
    d37c:	2d 41       	mov	@r1,	r13	;
    d37e:	0c 49       	mov	r9,	r12	;
    d380:	b0 12 a4 c7 	call	#51108		;#0xc7a4

0000d384 <.LVL12>:
    d384:	0c 93       	cmp	#0,	r12	;r3 As==00
    d386:	0a 20       	jnz	$+22     	;abs 0xd39c

0000d388 <.Loc.56.1>:
    d388:	1c 4a 06 00 	mov	6(r10),	r12	;

0000d38c <.LVL13>:
    d38c:	3c b0 00 02 	bit	#512,	r12	;#0x0200
    d390:	ec 23       	jnz	$-38     	;abs 0xd36a

0000d392 <.Loc.58.1>:
    d392:	2c d3       	bis	#2,	r12	;r3 As==10
    d394:	8a 4c 06 00 	mov	r12,	6(r10)	;
    d398:	30 40 58 d3 	br	#0xd358		;

0000d39c <.L15>:
    d39c:	b9 40 5c c5 	mov	#50524,	20(r9)	;#0xc55c, 0x0014
    d3a0:	14 00 

0000d3a2 <.Loc.66.1>:
    d3a2:	ba d0 80 00 	bis	#128,	6(r10)	;#0x0080
    d3a6:	06 00 

0000d3a8 <.Loc.67.1>:
    d3a8:	8a 4c 00 00 	mov	r12,	0(r10)	;
    d3ac:	8a 4c 0a 00 	mov	r12,	10(r10)	; 0x000a

0000d3b0 <.Loc.68.1>:
    d3b0:	aa 41 0c 00 	mov	@r1,	12(r10)	; 0x000c

0000d3b4 <.Loc.69.1>:
    d3b4:	81 93 02 00 	cmp	#0,	2(r1)	;r3 As==00
    d3b8:	09 24       	jz	$+20     	;abs 0xd3cc

0000d3ba <.Loc.69.1>:
    d3ba:	1d 4a 08 00 	mov	8(r10),	r13	;
    d3be:	0c 49       	mov	r9,	r12	;

0000d3c0 <.LVL15>:
    d3c0:	b0 12 e4 da 	call	#56036		;#0xdae4

0000d3c4 <.LVL16>:
    d3c4:	0c 93       	cmp	#0,	r12	;r3 As==00
    d3c6:	02 24       	jz	$+6      	;abs 0xd3cc

0000d3c8 <.Loc.70.1>:
    d3c8:	9a d3 06 00 	bis	#1,	6(r10)	;r3 As==01

0000d3cc <.L18>:
    d3cc:	8a d8 06 00 	bis	r8,	6(r10)	;
    d3d0:	30 40 6a d3 	br	#0xd36a		;

0000d3d4 <memchr>:
    d3d4:	3d f0 ff 00 	and	#255,	r13	;#0x00ff

0000d3d8 <.LVL2>:
    d3d8:	0e 5c       	add	r12,	r14	;

0000d3da <.L2>:
    d3da:	0c 9e       	cmp	r14,	r12	;
    d3dc:	02 20       	jnz	$+6      	;abs 0xd3e2

0000d3de <.Loc.133.1>:
    d3de:	4c 43       	clr.b	r12		;

0000d3e0 <.L1>:
    d3e0:	30 41       	ret			

0000d3e2 <.L4>:
    d3e2:	cc 9d 00 00 	cmp.b	r13,	0(r12)	;
    d3e6:	fc 27       	jz	$-6      	;abs 0xd3e0

0000d3e8 <.Loc.130.1>:
    d3e8:	1c 53       	inc	r12		;

0000d3ea <.LVL6>:
    d3ea:	30 40 da d3 	br	#0xd3da		;

0000d3ee <memcpy>:
    d3ee:	0f 4c       	mov	r12,	r15	;
    d3f0:	0e 5c       	add	r12,	r14	;

0000d3f2 <.L2>:
    d3f2:	0f 9e       	cmp	r14,	r15	;
    d3f4:	01 20       	jnz	$+4      	;abs 0xd3f8

0000d3f6 <.Loc.111.1>:
    d3f6:	30 41       	ret			

0000d3f8 <.L3>:
    d3f8:	ef 4d 00 00 	mov.b	@r13,	0(r15)	;
    d3fc:	1f 53       	inc	r15		;

0000d3fe <.LVL4>:
    d3fe:	1d 53       	inc	r13		;
    d400:	30 40 f2 d3 	br	#0xd3f2		;

0000d404 <memmove>:
    d404:	0b 4c       	mov	r12,	r11	;
    d406:	0b 5e       	add	r14,	r11	;

0000d408 <.Loc.69.1>:
    d408:	0d 9c       	cmp	r12,	r13	;
    d40a:	09 28       	jnc	$+20     	;abs 0xd41e

0000d40c <.L4>:
    d40c:	0e 4c       	mov	r12,	r14	;

0000d40e <.L3>:
    d40e:	0b 9e       	cmp	r14,	r11	;
    d410:	10 24       	jz	$+34     	;abs 0xd432

0000d412 <.LVL3>:
    d412:	ee 4d 00 00 	mov.b	@r13,	0(r14)	;
    d416:	1e 53       	inc	r14		;

0000d418 <.LVL4>:
    d418:	1d 53       	inc	r13		;
    d41a:	30 40 0e d4 	br	#0xd40e		;

0000d41e <.L2>:
    d41e:	0f 4d       	mov	r13,	r15	;
    d420:	0f 5e       	add	r14,	r15	;
    d422:	0c 9f       	cmp	r15,	r12	;
    d424:	f3 2f       	jc	$-24     	;abs 0xd40c

0000d426 <.LVL6>:
    d426:	0d 4f       	mov	r15,	r13	;

0000d428 <.LVL7>:
    d428:	0e 8f       	sub	r15,	r14	;

0000d42a <.L5>:
    d42a:	0f 4d       	mov	r13,	r15	;
    d42c:	0f 5e       	add	r14,	r15	;
    d42e:	0f 93       	cmp	#0,	r15	;r3 As==00
    d430:	01 20       	jnz	$+4      	;abs 0xd434

0000d432 <.L9>:
    d432:	30 41       	ret			

0000d434 <.L6>:
    d434:	3b 53       	add	#-1,	r11	;r3 As==11
    d436:	3d 53       	add	#-1,	r13	;r3 As==11

0000d438 <.LVL12>:
    d438:	eb 4d 00 00 	mov.b	@r13,	0(r11)	;
    d43c:	30 40 2a d4 	br	#0xd42a		;

0000d440 <_free_r>:
    d440:	0a 12       	push	r10		;

0000d442 <.LCFI0>:
    d442:	09 12       	push	r9		;

0000d444 <.LCFI1>:
    d444:	08 12       	push	r8		;

0000d446 <.LCFI2>:
    d446:	07 12       	push	r7		;

0000d448 <.LCFI3>:
    d448:	0d 93       	cmp	#0,	r13	;r3 As==00
    d44a:	28 24       	jz	$+82     	;abs 0xd49c

0000d44c <.LBB4>:
    d44c:	0e 4d       	mov	r13,	r14	;
    d44e:	3e 50 fc ff 	add	#65532,	r14	;#0xfffc

0000d452 <.LVL2>:
    d452:	1f 4d fc ff 	mov	-4(r13),r15	;
    d456:	8d 93 fe ff 	cmp	#0,	-2(r13)	;r3 As==00, 0xfffe
    d45a:	01 34       	jge	$+4      	;abs 0xd45e
    d45c:	0e 5f       	add	r15,	r14	;

0000d45e <.L4>:
    d45e:	1d 42 02 03 	mov	&0x0302,r13	;0x0302

0000d462 <.LVL4>:
    d462:	0d 93       	cmp	#0,	r13	;r3 As==00
    d464:	04 20       	jnz	$+10     	;abs 0xd46e

0000d466 <.L8>:
    d466:	8e 4d 04 00 	mov	r13,	4(r14)	;
    d46a:	30 40 98 d4 	br	#0xd498		;

0000d46e <.L6>:
    d46e:	0e 9d       	cmp	r13,	r14	;
    d470:	18 2c       	jc	$+50     	;abs 0xd4a2

0000d472 <.Loc.359.1>:
    d472:	2a 4e       	mov	@r14,	r10	;
    d474:	1b 4e 02 00 	mov	2(r14),	r11	;
    d478:	0c 4e       	mov	r14,	r12	;

0000d47a <.LVL7>:
    d47a:	0c 5a       	add	r10,	r12	;
    d47c:	0d 9c       	cmp	r12,	r13	;
    d47e:	f3 23       	jnz	$-24     	;abs 0xd466

0000d480 <.Loc.363.1>:
    d480:	08 4a       	mov	r10,	r8	;
    d482:	09 4b       	mov	r11,	r9	;
    d484:	28 5d       	add	@r13,	r8	;
    d486:	19 6d 02 00 	addc	2(r13),	r9	;
    d48a:	8e 48 00 00 	mov	r8,	0(r14)	;
    d48e:	8e 49 02 00 	mov	r9,	2(r14)	;

0000d492 <.Loc.364.1>:
    d492:	9e 4d 04 00 	mov	4(r13),	4(r14)	;
    d496:	04 00 

0000d498 <.L9>:
    d498:	82 4e 02 03 	mov	r14,	&0x0302	;

0000d49c <.L1>:
    d49c:	30 40 88 c3 	br	#0xc388		;

0000d4a0 <.L16>:
    d4a0:	0d 4f       	mov	r15,	r13	;

0000d4a2 <.L11>:
    d4a2:	1f 4d 04 00 	mov	4(r13),	r15	;

0000d4a6 <.LVL10>:
    d4a6:	0f 93       	cmp	#0,	r15	;r3 As==00
    d4a8:	02 24       	jz	$+6      	;abs 0xd4ae

0000d4aa <.Loc.382.1>:
    d4aa:	0e 9f       	cmp	r15,	r14	;
    d4ac:	f9 2f       	jc	$-12     	;abs 0xd4a0

0000d4ae <.L10>:
    d4ae:	29 4d       	mov	@r13,	r9	;
    d4b0:	17 4d 02 00 	mov	2(r13),	r7	;
    d4b4:	08 4d       	mov	r13,	r8	;
    d4b6:	08 59       	add	r9,	r8	;
    d4b8:	08 9e       	cmp	r14,	r8	;
    d4ba:	1b 20       	jnz	$+56     	;abs 0xd4f2

0000d4bc <.Loc.391.1>:
    d4bc:	2a 4e       	mov	@r14,	r10	;
    d4be:	0a 59       	add	r9,	r10	;
    d4c0:	1b 4e 02 00 	mov	2(r14),	r11	;
    d4c4:	0b 67       	addc	r7,	r11	;
    d4c6:	8d 4a 00 00 	mov	r10,	0(r13)	;
    d4ca:	8d 4b 02 00 	mov	r11,	2(r13)	;

0000d4ce <.Loc.394.1>:
    d4ce:	0c 4d       	mov	r13,	r12	;

0000d4d0 <.LVL11>:
    d4d0:	0c 5a       	add	r10,	r12	;
    d4d2:	0f 9c       	cmp	r12,	r15	;
    d4d4:	e3 23       	jnz	$-56     	;abs 0xd49c

0000d4d6 <.Loc.396.1>:
    d4d6:	08 4a       	mov	r10,	r8	;
    d4d8:	09 4b       	mov	r11,	r9	;
    d4da:	28 5f       	add	@r15,	r8	;
    d4dc:	19 6f 02 00 	addc	2(r15),	r9	;
    d4e0:	8d 48 00 00 	mov	r8,	0(r13)	;
    d4e4:	8d 49 02 00 	mov	r9,	2(r13)	;

0000d4e8 <.Loc.397.1>:
    d4e8:	9d 4f 04 00 	mov	4(r15),	4(r13)	;
    d4ec:	04 00 
    d4ee:	30 40 9c d4 	br	#0xd49c		;

0000d4f2 <.L12>:
    d4f2:	0e 98       	cmp	r8,	r14	;
    d4f4:	05 2c       	jc	$+12     	;abs 0xd500

0000d4f6 <.Loc.404.1>:
    d4f6:	bc 40 0c 00 	mov	#12,	0(r12)	;#0x000c
    d4fa:	00 00 

0000d4fc <.Loc.406.1>:
    d4fc:	30 40 9c d4 	br	#0xd49c		;

0000d500 <.L14>:
    d500:	2a 4e       	mov	@r14,	r10	;
    d502:	1b 4e 02 00 	mov	2(r14),	r11	;
    d506:	0c 4e       	mov	r14,	r12	;

0000d508 <.LVL13>:
    d508:	0c 5a       	add	r10,	r12	;
    d50a:	0f 9c       	cmp	r12,	r15	;
    d50c:	10 20       	jnz	$+34     	;abs 0xd52e

0000d50e <.Loc.413.1>:
    d50e:	08 4a       	mov	r10,	r8	;
    d510:	09 4b       	mov	r11,	r9	;
    d512:	28 5f       	add	@r15,	r8	;
    d514:	19 6f 02 00 	addc	2(r15),	r9	;
    d518:	8e 48 00 00 	mov	r8,	0(r14)	;
    d51c:	8e 49 02 00 	mov	r9,	2(r14)	;

0000d520 <.Loc.414.1>:
    d520:	9e 4f 04 00 	mov	4(r15),	4(r14)	;
    d524:	04 00 

0000d526 <.L20>:
    d526:	8d 4e 04 00 	mov	r14,	4(r13)	;
    d52a:	30 40 9c d4 	br	#0xd49c		;

0000d52e <.L15>:
    d52e:	8e 4f 04 00 	mov	r15,	4(r14)	;
    d532:	30 40 26 d5 	br	#0xd526		;

0000d536 <_printf_common>:
    d536:	0a 12       	push	r10		;

0000d538 <.LCFI0>:
    d538:	09 12       	push	r9		;

0000d53a <.LCFI1>:
    d53a:	08 12       	push	r8		;

0000d53c <.LCFI2>:
    d53c:	07 12       	push	r7		;

0000d53e <.LCFI3>:
    d53e:	06 12       	push	r6		;

0000d540 <.LCFI4>:
    d540:	05 12       	push	r5		;

0000d542 <.LCFI5>:
    d542:	04 12       	push	r4		;

0000d544 <.LCFI6>:
    d544:	21 83       	decd	r1		;

0000d546 <.LCFI7>:
    d546:	07 4c       	mov	r12,	r7	;
    d548:	0a 4d       	mov	r13,	r10	;
    d54a:	08 4e       	mov	r14,	r8	;
    d54c:	06 4f       	mov	r15,	r6	;
    d54e:	15 41 12 00 	mov	18(r1),	r5	;0x00012

0000d552 <.Loc.72.1>:
    d552:	1d 4d 04 00 	mov	4(r13),	r13	;

0000d556 <.LVL1>:
    d556:	1c 4a 08 00 	mov	8(r10),	r12	;

0000d55a <.LVL2>:
    d55a:	0c 9d       	cmp	r13,	r12	;
    d55c:	01 34       	jge	$+4      	;abs 0xd560
    d55e:	0c 4d       	mov	r13,	r12	;

0000d560 <.L2>:
    d560:	88 4c 00 00 	mov	r12,	0(r8)	;

0000d564 <.Loc.73.1>:
    d564:	ca 93 37 00 	cmp.b	#0,	55(r10)	;r3 As==00, 0x0037
    d568:	03 24       	jz	$+8      	;abs 0xd570

0000d56a <.Loc.74.1>:
    d56a:	1c 53       	inc	r12		;
    d56c:	88 4c 00 00 	mov	r12,	0(r8)	;

0000d570 <.L3>:
    d570:	fa b0 20 00 	bit.b	#32,	0(r10)	;#0x0020
    d574:	00 00 
    d576:	02 24       	jz	$+6      	;abs 0xd57c

0000d578 <.Loc.77.1>:
    d578:	a8 53 00 00 	incd	0(r8)		;

0000d57c <.L4>:
    d57c:	29 4a       	mov	@r10,	r9	;
    d57e:	79 f0 06 00 	and.b	#6,	r9	;
    d582:	09 93       	cmp	#0,	r9	;r3 As==00
    d584:	0b 20       	jnz	$+24     	;abs 0xd59c

0000d586 <.LBB2>:
    d586:	0c 4a       	mov	r10,	r12	;
    d588:	3c 50 0d 00 	add	#13,	r12	;#0x000d
    d58c:	81 4c 00 00 	mov	r12,	0(r1)	;
    d590:	54 43       	mov.b	#1,	r4	;r3 As==01

0000d592 <.L6>:
    d592:	1c 4a 06 00 	mov	6(r10),	r12	;
    d596:	2c 88       	sub	@r8,	r12	;
    d598:	09 9c       	cmp	r12,	r9	;
    d59a:	30 38       	jl	$+98     	;abs 0xd5fc

0000d59c <.L5>:
    d59c:	5d 4a 37 00 	mov.b	55(r10),r13	;0x00037
    d5a0:	0c 43       	clr	r12		;
    d5a2:	0c 8d       	sub	r13,	r12	;
    d5a4:	b0 12 7a c4 	call	#50298		;#0xc47a

0000d5a8 <.LVL6>:
    d5a8:	fa b0 20 00 	bit.b	#32,	0(r10)	;#0x0020
    d5ac:	00 00 
    d5ae:	34 20       	jnz	$+106    	;abs 0xd618

0000d5b0 <.L8>:
    d5b0:	0f 4c       	mov	r12,	r15	;
    d5b2:	0e 4a       	mov	r10,	r14	;
    d5b4:	3e 50 37 00 	add	#55,	r14	;#0x0037
    d5b8:	0d 46       	mov	r6,	r13	;
    d5ba:	0c 47       	mov	r7,	r12	;

0000d5bc <.LVL8>:
    d5bc:	85 12       	call	r5		;

0000d5be <.LVL9>:
    d5be:	3c 93       	cmp	#-1,	r12	;r3 As==11
    d5c0:	24 24       	jz	$+74     	;abs 0xd60a

0000d5c2 <.Loc.95.1>:
    d5c2:	19 4a 06 00 	mov	6(r10),	r9	;
    d5c6:	2c 48       	mov	@r8,	r12	;

0000d5c8 <.LVL10>:
    d5c8:	2d 4a       	mov	@r10,	r13	;
    d5ca:	7d f0 06 00 	and.b	#6,	r13	;
    d5ce:	2d 92       	cmp	#4,	r13	;r2 As==10
    d5d0:	03 20       	jnz	$+8      	;abs 0xd5d8

0000d5d2 <.Loc.95.1>:
    d5d2:	09 8c       	sub	r12,	r9	;

0000d5d4 <.LVL11>:
    d5d4:	09 93       	cmp	#0,	r9	;r3 As==00
    d5d6:	01 34       	jge	$+4      	;abs 0xd5da

0000d5d8 <.L18>:
    d5d8:	49 43       	clr.b	r9		;

0000d5da <.L13>:
    d5da:	1c 4a 04 00 	mov	4(r10),	r12	;
    d5de:	1d 4a 08 00 	mov	8(r10),	r13	;
    d5e2:	0d 9c       	cmp	r12,	r13	;
    d5e4:	02 34       	jge	$+6      	;abs 0xd5ea

0000d5e6 <.Loc.100.1>:
    d5e6:	0c 8d       	sub	r13,	r12	;
    d5e8:	09 5c       	add	r12,	r9	;

0000d5ea <.L15>:
    d5ea:	48 43       	clr.b	r8		;

0000d5ec <.LVL15>:
    d5ec:	3a 50 0e 00 	add	#14,	r10	;#0x000e

0000d5f0 <.LVL16>:
    d5f0:	54 43       	mov.b	#1,	r4	;r3 As==01

0000d5f2 <.L16>:
    d5f2:	09 98       	cmp	r8,	r9	;
    d5f4:	1f 20       	jnz	$+64     	;abs 0xd634

0000d5f6 <.LBE3>:
    d5f6:	4c 43       	clr.b	r12		;
    d5f8:	30 40 0c d6 	br	#0xd60c		;

0000d5fc <.L11>:
    d5fc:	0f 44       	mov	r4,	r15	;
    d5fe:	2e 41       	mov	@r1,	r14	;
    d600:	0d 46       	mov	r6,	r13	;
    d602:	0c 47       	mov	r7,	r12	;
    d604:	85 12       	call	r5		;

0000d606 <.LVL19>:
    d606:	3c 93       	cmp	#-1,	r12	;r3 As==11
    d608:	04 20       	jnz	$+10     	;abs 0xd612

0000d60a <.L12>:
    d60a:	3c 43       	mov	#-1,	r12	;r3 As==11

0000d60c <.L1>:
    d60c:	21 53       	incd	r1		;
    d60e:	30 40 82 c3 	br	#0xc382		;

0000d612 <.L9>:
    d612:	19 53       	inc	r9		;
    d614:	30 40 92 d5 	br	#0xd592		;

0000d618 <.L7>:
    d618:	0d 4a       	mov	r10,	r13	;
    d61a:	0d 5c       	add	r12,	r13	;
    d61c:	fd 40 30 00 	mov.b	#48,	55(r13)	;#0x0030, 0x0037
    d620:	37 00 

0000d622 <.LVL24>:
    d622:	0d 4c       	mov	r12,	r13	;
    d624:	1d 53       	inc	r13		;
    d626:	0d 5a       	add	r10,	r13	;
    d628:	2c 53       	incd	r12		;

0000d62a <.LVL25>:
    d62a:	dd 4a 39 00 	mov.b	57(r10),55(r13)	;0x00039, 0x0037
    d62e:	37 00 
    d630:	30 40 b0 d5 	br	#0xd5b0		;

0000d634 <.L17>:
    d634:	0f 44       	mov	r4,	r15	;
    d636:	0e 4a       	mov	r10,	r14	;
    d638:	0d 46       	mov	r6,	r13	;
    d63a:	0c 47       	mov	r7,	r12	;
    d63c:	85 12       	call	r5		;

0000d63e <.LVL27>:
    d63e:	3c 93       	cmp	#-1,	r12	;r3 As==11
    d640:	e4 27       	jz	$-54     	;abs 0xd60a

0000d642 <.Loc.102.1>:
    d642:	18 53       	inc	r8		;
    d644:	30 40 f2 d5 	br	#0xd5f2		;

0000d648 <_printf_i>:
    d648:	0a 12       	push	r10		;

0000d64a <.LCFI8>:
    d64a:	09 12       	push	r9		;

0000d64c <.LCFI9>:
    d64c:	08 12       	push	r8		;

0000d64e <.LCFI10>:
    d64e:	07 12       	push	r7		;

0000d650 <.LCFI11>:
    d650:	06 12       	push	r6		;

0000d652 <.LCFI12>:
    d652:	05 12       	push	r5		;

0000d654 <.LCFI13>:
    d654:	04 12       	push	r4		;

0000d656 <.LCFI14>:
    d656:	31 80 0e 00 	sub	#14,	r1	;#0x000e

0000d65a <.LCFI15>:
    d65a:	81 4c 04 00 	mov	r12,	4(r1)	;
    d65e:	0a 4d       	mov	r13,	r10	;
    d660:	81 4e 06 00 	mov	r14,	6(r1)	;
    d664:	04 4f       	mov	r15,	r4	;
    d666:	1c 41 1e 00 	mov	30(r1),	r12	;0x0001e

0000d66a <.LVL30>:
    d66a:	0b 4d       	mov	r13,	r11	;
    d66c:	3b 50 37 00 	add	#55,	r11	;#0x0037

0000d670 <.LVL31>:
    d670:	5e 4d 0c 00 	mov.b	12(r13),r14	;0x0000c

0000d674 <.LVL32>:
    d674:	7e 90 6e 00 	cmp.b	#110,	r14	;#0x006e
    d678:	48 25       	jz	$+658    	;abs 0xd90a
    d67a:	79 40 6e 00 	mov.b	#110,	r9	;#0x006e
    d67e:	49 9e       	cmp.b	r14,	r9	;
    d680:	3a 28       	jnc	$+118    	;abs 0xd6f6
    d682:	7e 90 63 00 	cmp.b	#99,	r14	;#0x0063
    d686:	56 24       	jz	$+174    	;abs 0xd734
    d688:	7f 40 63 00 	mov.b	#99,	r15	;#0x0063

0000d68c <.LVL33>:
    d68c:	4f 9e       	cmp.b	r14,	r15	;
    d68e:	0c 28       	jnc	$+26     	;abs 0xd6a8
    d690:	4e 93       	cmp.b	#0,	r14	;r3 As==00
    d692:	50 25       	jz	$+674    	;abs 0xd934
    d694:	7e 90 58 00 	cmp.b	#88,	r14	;#0x0058
    d698:	cc 24       	jz	$+410    	;abs 0xd832

0000d69a <.L29>:
    d69a:	07 4a       	mov	r10,	r7	;
    d69c:	37 50 36 00 	add	#54,	r7	;#0x0036

0000d6a0 <.LVL34>:
    d6a0:	ca 4e 36 00 	mov.b	r14,	54(r10)	; 0x0036
    d6a4:	30 40 4c d7 	br	#0xd74c		;

0000d6a8 <.L33>:
    d6a8:	7e 90 64 00 	cmp.b	#100,	r14	;#0x0064
    d6ac:	03 24       	jz	$+8      	;abs 0xd6b4
    d6ae:	7e 90 69 00 	cmp.b	#105,	r14	;#0x0069
    d6b2:	f3 23       	jnz	$-24     	;abs 0xd69a

0000d6b4 <.L36>:
    d6b4:	2e 4a       	mov	@r10,	r14	;
    d6b6:	2d 4c       	mov	@r12,	r13	;
    d6b8:	1d 53       	inc	r13		;
    d6ba:	1d c3       	bic	#1,	r13	;r3 As==01
    d6bc:	3e b0 80 00 	bit	#128,	r14	;#0x0080
    d6c0:	49 24       	jz	$+148    	;abs 0xd754
    d6c2:	0f 4d       	mov	r13,	r15	;
    d6c4:	2f 52       	add	#4,	r15	;r2 As==10
    d6c6:	8c 4f 00 00 	mov	r15,	0(r12)	;
    d6ca:	28 4d       	mov	@r13,	r8	;
    d6cc:	19 4d 02 00 	mov	2(r13),	r9	;

0000d6d0 <.L44>:
    d6d0:	09 93       	cmp	#0,	r9	;r3 As==00
    d6d2:	0b 34       	jge	$+24     	;abs 0xd6ea

0000d6d4 <.Loc.132.1>:
    d6d4:	4c 43       	clr.b	r12		;
    d6d6:	4d 43       	clr.b	r13		;
    d6d8:	0e 4c       	mov	r12,	r14	;
    d6da:	0f 4d       	mov	r13,	r15	;
    d6dc:	0e 88       	sub	r8,	r14	;
    d6de:	0f 79       	subc	r9,	r15	;
    d6e0:	08 4e       	mov	r14,	r8	;

0000d6e2 <.LVL37>:
    d6e2:	09 4f       	mov	r15,	r9	;

0000d6e4 <.LVL38>:
    d6e4:	fa 40 2d 00 	mov.b	#45,	55(r10)	;#0x002d, 0x0037
    d6e8:	37 00 

0000d6ea <.L75>:
    d6ea:	35 40 bf c0 	mov	#49343,	r5	;#0xc0bf

0000d6ee <.LBB9>:
    d6ee:	76 40 0a 00 	mov.b	#10,	r6	;#0x000a
    d6f2:	30 40 ac d7 	br	#0xd7ac		;

0000d6f6 <.L31>:
    d6f6:	7e 90 73 00 	cmp.b	#115,	r14	;#0x0073
    d6fa:	34 25       	jz	$+618    	;abs 0xd964
    d6fc:	79 40 73 00 	mov.b	#115,	r9	;#0x0073
    d700:	49 9e       	cmp.b	r14,	r9	;
    d702:	0b 28       	jnc	$+24     	;abs 0xd71a
    d704:	7e 90 6f 00 	cmp.b	#111,	r14	;#0x006f
    d708:	39 24       	jz	$+116    	;abs 0xd77c
    d70a:	7e 90 70 00 	cmp.b	#112,	r14	;#0x0070
    d70e:	c5 23       	jnz	$-116    	;abs 0xd69a

0000d710 <.LBB10>:
    d710:	ba d0 20 00 	bis	#32,	0(r10)	;#0x0020
    d714:	00 00 
    d716:	30 40 26 d7 	br	#0xd726		;

0000d71a <.L38>:
    d71a:	7e 90 75 00 	cmp.b	#117,	r14	;#0x0075
    d71e:	2e 24       	jz	$+94     	;abs 0xd77c
    d720:	7e 90 78 00 	cmp.b	#120,	r14	;#0x0078
    d724:	ba 23       	jnz	$-138    	;abs 0xd69a

0000d726 <.L41>:
    d726:	fa 40 78 00 	mov.b	#120,	57(r10)	;#0x0078, 0x0039
    d72a:	39 00 

0000d72c <.Loc.159.1>:
    d72c:	35 40 d0 c0 	mov	#49360,	r5	;#0xc0d0
    d730:	30 40 3a d8 	br	#0xd83a		;

0000d734 <.L32>:
    d734:	07 4a       	mov	r10,	r7	;
    d736:	37 50 36 00 	add	#54,	r7	;#0x0036

0000d73a <.LVL42>:
    d73a:	2d 4c       	mov	@r12,	r13	;
    d73c:	1d 53       	inc	r13		;
    d73e:	1d c3       	bic	#1,	r13	;r3 As==01
    d740:	0e 4d       	mov	r13,	r14	;
    d742:	2e 53       	incd	r14		;
    d744:	8c 4e 00 00 	mov	r14,	0(r12)	;
    d748:	ea 4d 36 00 	mov.b	@r13,	54(r10)	; 0x0036

0000d74c <.L117>:
    d74c:	9a 43 08 00 	mov	#1,	8(r10)	;r3 As==01
    d750:	30 40 8c d9 	br	#0xd98c		;

0000d754 <.L43>:
    d754:	3e b0 40 00 	bit	#64,	r14	;#0x0040
    d758:	0b 24       	jz	$+24     	;abs 0xd770

0000d75a <.Loc.129.1>:
    d75a:	09 4d       	mov	r13,	r9	;
    d75c:	29 53       	incd	r9		;
    d75e:	8c 49 00 00 	mov	r9,	0(r12)	;

0000d762 <.L115>:
    d762:	28 4d       	mov	@r13,	r8	;
    d764:	38 b0 00 80 	bit	#32768,	r8	;#0x8000
    d768:	09 79       	subc	r9,	r9	;
    d76a:	39 e3       	inv	r9		;
    d76c:	30 40 d0 d6 	br	#0xd6d0		;

0000d770 <.L45>:
    d770:	0e 4d       	mov	r13,	r14	;
    d772:	2e 53       	incd	r14		;
    d774:	8c 4e 00 00 	mov	r14,	0(r12)	;
    d778:	30 40 62 d7 	br	#0xd762		;

0000d77c <.L39>:
    d77c:	2f 4a       	mov	@r10,	r15	;
    d77e:	07 4f       	mov	r15,	r7	;
    d780:	77 f0 80 00 	and.b	#128,	r7	;#0x0080
    d784:	2d 4c       	mov	@r12,	r13	;
    d786:	07 93       	cmp	#0,	r7	;r3 As==00
    d788:	43 24       	jz	$+136    	;abs 0xd810
    d78a:	1d 53       	inc	r13		;
    d78c:	1d c3       	bic	#1,	r13	;r3 As==01
    d78e:	0f 4d       	mov	r13,	r15	;
    d790:	2f 52       	add	#4,	r15	;r2 As==10
    d792:	8c 4f 00 00 	mov	r15,	0(r12)	;
    d796:	28 4d       	mov	@r13,	r8	;
    d798:	19 4d 02 00 	mov	2(r13),	r9	;

0000d79c <.L50>:
    d79c:	35 40 bf c0 	mov	#49343,	r5	;#0xc0bf

0000d7a0 <.LBB12>:
    d7a0:	3e 90 6f 00 	cmp	#111,	r14	;#0x006f
    d7a4:	85 20       	jnz	$+268    	;abs 0xd8b0

0000d7a6 <.Loc.140.1>:
    d7a6:	76 42       	mov.b	#8,	r6	;r2 As==11

0000d7a8 <.L52>:
    d7a8:	ca 43 37 00 	mov.b	#0,	55(r10)	;r3 As==00, 0x0037

0000d7ac <.L47>:
    d7ac:	1c 4a 02 00 	mov	2(r10),	r12	;
    d7b0:	8a 4c 04 00 	mov	r12,	4(r10)	;
    d7b4:	0c 93       	cmp	#0,	r12	;r3 As==00
    d7b6:	1b 39       	jl	$+568    	;abs 0xd9ee

0000d7b8 <.Loc.180.1>:
    d7b8:	aa c2 00 00 	bic	#4,	0(r10)	;r2 As==10

0000d7bc <.Loc.187.1>:
    d7bc:	0d 48       	mov	r8,	r13	;
    d7be:	0d d9       	bis	r9,	r13	;
    d7c0:	0d 93       	cmp	#0,	r13	;r3 As==00
    d7c2:	7a 20       	jnz	$+246    	;abs 0xd8b8

0000d7c4 <.Loc.187.1>:
    d7c4:	0c 93       	cmp	#0,	r12	;r3 As==00
    d7c6:	17 21       	jnz	$+560    	;abs 0xd9f6

0000d7c8 <.LBE12>:
    d7c8:	07 4b       	mov	r11,	r7	;

0000d7ca <.L61>:
    d7ca:	36 92       	cmp	#8,	r6	;r2 As==11
    d7cc:	0b 20       	jnz	$+24     	;abs 0xd7e4

0000d7ce <.Loc.198.1>:
    d7ce:	da b3 00 00 	bit.b	#1,	0(r10)	;r3 As==01
    d7d2:	08 24       	jz	$+18     	;abs 0xd7e4

0000d7d4 <.Loc.198.1>:
    d7d4:	9a 9a 02 00 	cmp	2(r10),	8(r10)	;
    d7d8:	08 00 
    d7da:	04 38       	jl	$+10     	;abs 0xd7e4

0000d7dc <.LVL48>:
    d7dc:	f7 40 30 00 	mov.b	#48,	-1(r7)	;#0x0030, 0xffff
    d7e0:	ff ff 
    d7e2:	37 53       	add	#-1,	r7	;r3 As==11

0000d7e4 <.L63>:
    d7e4:	0b 87       	sub	r7,	r11	;
    d7e6:	8a 4b 08 00 	mov	r11,	8(r10)	;

0000d7ea <.L64>:
    d7ea:	81 44 00 00 	mov	r4,	0(r1)	;
    d7ee:	1f 41 06 00 	mov	6(r1),	r15	;
    d7f2:	0e 41       	mov	r1,	r14	;
    d7f4:	3e 50 0c 00 	add	#12,	r14	;#0x000c
    d7f8:	0d 4a       	mov	r10,	r13	;
    d7fa:	1c 41 04 00 	mov	4(r1),	r12	;
    d7fe:	b0 12 36 d5 	call	#54582		;#0xd536

0000d802 <.LVL51>:
    d802:	3c 93       	cmp	#-1,	r12	;r3 As==11
    d804:	c7 20       	jnz	$+400    	;abs 0xd994

0000d806 <.L70>:
    d806:	3c 43       	mov	#-1,	r12	;r3 As==11

0000d808 <.L28>:
    d808:	31 50 0e 00 	add	#14,	r1	;#0x000e
    d80c:	30 40 82 c3 	br	#0xc382		;

0000d810 <.L49>:
    d810:	7f f0 40 00 	and.b	#64,	r15	;#0x0040
    d814:	1d 53       	inc	r13		;
    d816:	1d c3       	bic	#1,	r13	;r3 As==01
    d818:	09 4d       	mov	r13,	r9	;
    d81a:	29 53       	incd	r9		;
    d81c:	8c 49 00 00 	mov	r9,	0(r12)	;
    d820:	28 4d       	mov	@r13,	r8	;
    d822:	0f 93       	cmp	#0,	r15	;r3 As==00
    d824:	03 24       	jz	$+8      	;abs 0xd82c

0000d826 <.Loc.139.1>:
    d826:	09 47       	mov	r7,	r9	;
    d828:	30 40 9c d7 	br	#0xd79c		;

0000d82c <.L51>:
    d82c:	09 4f       	mov	r15,	r9	;
    d82e:	30 40 9c d7 	br	#0xd79c		;

0000d832 <.L35>:
    d832:	ca 4e 39 00 	mov.b	r14,	57(r10)	; 0x0039

0000d836 <.LBE14>:
    d836:	35 40 bf c0 	mov	#49343,	r5	;#0xc0bf

0000d83a <.L53>:
    d83a:	2d 4a       	mov	@r10,	r13	;
    d83c:	0f 4d       	mov	r13,	r15	;
    d83e:	7f f0 80 00 	and.b	#128,	r15	;#0x0080
    d842:	29 4c       	mov	@r12,	r9	;
    d844:	0f 93       	cmp	#0,	r15	;r3 As==00
    d846:	1a 24       	jz	$+54     	;abs 0xd87c
    d848:	19 53       	inc	r9		;
    d84a:	19 c3       	bic	#1,	r9	;r3 As==01
    d84c:	0e 49       	mov	r9,	r14	;
    d84e:	2e 52       	add	#4,	r14	;r2 As==10
    d850:	8c 4e 00 00 	mov	r14,	0(r12)	;
    d854:	28 49       	mov	@r9,	r8	;
    d856:	19 49 02 00 	mov	2(r9),	r9	;

0000d85a <.L55>:
    d85a:	1d b3       	bit	#1,	r13	;r3 As==01
    d85c:	04 24       	jz	$+10     	;abs 0xd866

0000d85e <.Loc.164.1>:
    d85e:	3d d0 20 00 	bis	#32,	r13	;#0x0020
    d862:	8a 4d 00 00 	mov	r13,	0(r10)	;

0000d866 <.L57>:
    d866:	0c 48       	mov	r8,	r12	;

0000d868 <.LVL56>:
    d868:	0c d9       	bis	r9,	r12	;
    d86a:	0c 93       	cmp	#0,	r12	;r3 As==00
    d86c:	03 20       	jnz	$+8      	;abs 0xd874

0000d86e <.Loc.168.1>:
    d86e:	ba f0 df ff 	and	#65503,	0(r10)	;#0xffdf
    d872:	00 00 

0000d874 <.L77>:
    d874:	76 40 10 00 	mov.b	#16,	r6	;#0x0010
    d878:	30 40 a8 d7 	br	#0xd7a8		;

0000d87c <.L54>:
    d87c:	0e 4d       	mov	r13,	r14	;
    d87e:	7e f0 40 00 	and.b	#64,	r14	;#0x0040
    d882:	19 53       	inc	r9		;
    d884:	0e 93       	cmp	#0,	r14	;r3 As==00
    d886:	0a 24       	jz	$+22     	;abs 0xd89c

0000d888 <.Loc.161.1>:
    d888:	0e 49       	mov	r9,	r14	;
    d88a:	1e c3       	bic	#1,	r14	;r3 As==01
    d88c:	09 4e       	mov	r14,	r9	;
    d88e:	29 53       	incd	r9		;
    d890:	8c 49 00 00 	mov	r9,	0(r12)	;
    d894:	28 4e       	mov	@r14,	r8	;
    d896:	09 4f       	mov	r15,	r9	;
    d898:	30 40 5a d8 	br	#0xd85a		;

0000d89c <.L56>:
    d89c:	0f 49       	mov	r9,	r15	;
    d89e:	1f c3       	bic	#1,	r15	;r3 As==01
    d8a0:	09 4f       	mov	r15,	r9	;
    d8a2:	29 53       	incd	r9		;
    d8a4:	8c 49 00 00 	mov	r9,	0(r12)	;
    d8a8:	28 4f       	mov	@r15,	r8	;
    d8aa:	09 4e       	mov	r14,	r9	;
    d8ac:	30 40 5a d8 	br	#0xd85a		;

0000d8b0 <.L76>:
    d8b0:	76 40 0a 00 	mov.b	#10,	r6	;#0x000a
    d8b4:	30 40 a8 d7 	br	#0xd7a8		;

0000d8b8 <.L59>:
    d8b8:	07 4b       	mov	r11,	r7	;

0000d8ba <.Loc.191.1>:
    d8ba:	0c 46       	mov	r6,	r12	;
    d8bc:	3c b0 00 80 	bit	#32768,	r12	;#0x8000
    d8c0:	0d 7d       	subc	r13,	r13	;
    d8c2:	3d e3       	inv	r13		;
    d8c4:	81 4c 08 00 	mov	r12,	8(r1)	;
    d8c8:	81 4d 0a 00 	mov	r13,	10(r1)	; 0x000a

0000d8cc <.L62>:
    d8cc:	37 53       	add	#-1,	r7	;r3 As==11
    d8ce:	1e 41 08 00 	mov	8(r1),	r14	;
    d8d2:	1f 41 0a 00 	mov	10(r1),	r15	;0x0000a
    d8d6:	0c 48       	mov	r8,	r12	;
    d8d8:	0d 49       	mov	r9,	r13	;
    d8da:	81 4b 02 00 	mov	r11,	2(r1)	;
    d8de:	b0 12 a4 db 	call	#56228		;#0xdba4
    d8e2:	0c 55       	add	r5,	r12	;
    d8e4:	e7 4c 00 00 	mov.b	@r12,	0(r7)	;

0000d8e8 <.Loc.192.1>:
    d8e8:	1e 41 08 00 	mov	8(r1),	r14	;
    d8ec:	1f 41 0a 00 	mov	10(r1),	r15	;0x0000a
    d8f0:	0c 48       	mov	r8,	r12	;
    d8f2:	0d 49       	mov	r9,	r13	;
    d8f4:	b0 12 96 db 	call	#56214		;#0xdb96
    d8f8:	08 4c       	mov	r12,	r8	;

0000d8fa <.LVL64>:
    d8fa:	09 4d       	mov	r13,	r9	;

0000d8fc <.LVL65>:
    d8fc:	0c dd       	bis	r13,	r12	;
    d8fe:	1b 41 02 00 	mov	2(r1),	r11	;
    d902:	0c 93       	cmp	#0,	r12	;r3 As==00
    d904:	e3 23       	jnz	$-56     	;abs 0xd8cc
    d906:	30 40 ca d7 	br	#0xd7ca		;

0000d90a <.L30>:
    d90a:	2e 4a       	mov	@r10,	r14	;
    d90c:	2d 4c       	mov	@r12,	r13	;
    d90e:	3e b0 80 00 	bit	#128,	r14	;#0x0080
    d912:	15 24       	jz	$+44     	;abs 0xd93e

0000d914 <.Loc.205.1>:
    d914:	0e 4d       	mov	r13,	r14	;
    d916:	2e 53       	incd	r14		;
    d918:	8c 4e 00 00 	mov	r14,	0(r12)	;
    d91c:	2c 4d       	mov	@r13,	r12	;

0000d91e <.LVL67>:
    d91e:	1e 4a 0a 00 	mov	10(r10),r14	;0x0000a
    d922:	0d 4e       	mov	r14,	r13	;
    d924:	3d b0 00 80 	bit	#32768,	r13	;#0x8000
    d928:	0e 7e       	subc	r14,	r14	;
    d92a:	3e e3       	inv	r14		;
    d92c:	8c 4d 00 00 	mov	r13,	0(r12)	;
    d930:	8c 4e 02 00 	mov	r14,	2(r12)	;

0000d934 <.L34>:
    d934:	8a 43 08 00 	mov	#0,	8(r10)	;r3 As==00

0000d938 <.LBE15>:
    d938:	07 4b       	mov	r11,	r7	;

0000d93a <.LBB16>:
    d93a:	30 40 ea d7 	br	#0xd7ea		;

0000d93e <.L65>:
    d93e:	3e b0 40 00 	bit	#64,	r14	;#0x0040
    d942:	0a 24       	jz	$+22     	;abs 0xd958

0000d944 <.Loc.207.1>:
    d944:	0f 4d       	mov	r13,	r15	;
    d946:	2f 53       	incd	r15		;
    d948:	8c 4f 00 00 	mov	r15,	0(r12)	;

0000d94c <.L116>:
    d94c:	2c 4d       	mov	@r13,	r12	;

0000d94e <.LVL70>:
    d94e:	9c 4a 0a 00 	mov	10(r10),0(r12)	;0x0000a
    d952:	00 00 

0000d954 <.LVL71>:
    d954:	30 40 34 d9 	br	#0xd934		;

0000d958 <.L66>:
    d958:	09 4d       	mov	r13,	r9	;
    d95a:	29 53       	incd	r9		;
    d95c:	8c 49 00 00 	mov	r9,	0(r12)	;
    d960:	30 40 4c d9 	br	#0xd94c		;

0000d964 <.L37>:
    d964:	2d 4c       	mov	@r12,	r13	;
    d966:	0e 4d       	mov	r13,	r14	;
    d968:	2e 53       	incd	r14		;
    d96a:	8c 4e 00 00 	mov	r14,	0(r12)	;
    d96e:	27 4d       	mov	@r13,	r7	;

0000d970 <.LVL73>:
    d970:	1e 4a 02 00 	mov	2(r10),	r14	;
    d974:	4d 43       	clr.b	r13		;
    d976:	0c 47       	mov	r7,	r12	;

0000d978 <.LVL74>:
    d978:	b0 12 d4 d3 	call	#54228		;#0xd3d4

0000d97c <.LVL75>:
    d97c:	0c 93       	cmp	#0,	r12	;r3 As==00
    d97e:	03 24       	jz	$+8      	;abs 0xd986

0000d980 <.Loc.222.1>:
    d980:	0c 87       	sub	r7,	r12	;

0000d982 <.LVL76>:
    d982:	8a 4c 02 00 	mov	r12,	2(r10)	;

0000d986 <.L67>:
    d986:	9a 4a 02 00 	mov	2(r10),	8(r10)	;
    d98a:	08 00 

0000d98c <.L42>:
    d98c:	ca 43 37 00 	mov.b	#0,	55(r10)	;r3 As==00, 0x0037

0000d990 <.Loc.233.1>:
    d990:	30 40 ea d7 	br	#0xd7ea		;

0000d994 <.L68>:
    d994:	1f 4a 08 00 	mov	8(r10),	r15	;
    d998:	0e 47       	mov	r7,	r14	;
    d99a:	1d 41 06 00 	mov	6(r1),	r13	;
    d99e:	1c 41 04 00 	mov	4(r1),	r12	;

0000d9a2 <.LVL79>:
    d9a2:	84 12       	call	r4		;

0000d9a4 <.LVL80>:
    d9a4:	3c 93       	cmp	#-1,	r12	;r3 As==11
    d9a6:	2f 27       	jz	$-416    	;abs 0xd806

0000d9a8 <.Loc.243.1>:
    d9a8:	ea b3 00 00 	bit.b	#2,	0(r10)	;r3 As==10
    d9ac:	0b 24       	jz	$+24     	;abs 0xd9c4
    d9ae:	49 43       	clr.b	r9		;

0000d9b0 <.LBB17>:
    d9b0:	08 4a       	mov	r10,	r8	;
    d9b2:	38 50 0d 00 	add	#13,	r8	;#0x000d
    d9b6:	57 43       	mov.b	#1,	r7	;r3 As==01

0000d9b8 <.L72>:
    d9b8:	1c 4a 06 00 	mov	6(r10),	r12	;
    d9bc:	1c 81 0c 00 	sub	12(r1),	r12	;0x0000c
    d9c0:	09 9c       	cmp	r12,	r9	;
    d9c2:	09 38       	jl	$+20     	;abs 0xd9d6

0000d9c4 <.L71>:
    d9c4:	1d 41 0c 00 	mov	12(r1),	r13	;0x0000c
    d9c8:	1c 4a 06 00 	mov	6(r10),	r12	;
    d9cc:	0c 9d       	cmp	r13,	r12	;
    d9ce:	1c 37       	jge	$-454    	;abs 0xd808
    d9d0:	0c 4d       	mov	r13,	r12	;
    d9d2:	30 40 08 d8 	br	#0xd808		;

0000d9d6 <.L74>:
    d9d6:	0f 47       	mov	r7,	r15	;
    d9d8:	0e 48       	mov	r8,	r14	;
    d9da:	1d 41 06 00 	mov	6(r1),	r13	;
    d9de:	1c 41 04 00 	mov	4(r1),	r12	;
    d9e2:	84 12       	call	r4		;

0000d9e4 <.LVL84>:
    d9e4:	3c 93       	cmp	#-1,	r12	;r3 As==11
    d9e6:	0f 27       	jz	$-480    	;abs 0xd806

0000d9e8 <.Loc.244.1>:
    d9e8:	19 53       	inc	r9		;
    d9ea:	30 40 b8 d9 	br	#0xd9b8		;

0000d9ee <.L58>:
    d9ee:	0c 48       	mov	r8,	r12	;
    d9f0:	0c d9       	bis	r9,	r12	;
    d9f2:	0c 93       	cmp	#0,	r12	;r3 As==00
    d9f4:	61 23       	jnz	$-316    	;abs 0xd8b8

0000d9f6 <.L60>:
    d9f6:	07 4a       	mov	r10,	r7	;
    d9f8:	37 50 36 00 	add	#54,	r7	;#0x0036

0000d9fc <.LVL88>:
    d9fc:	ea 45 36 00 	mov.b	@r5,	54(r10)	; 0x0036
    da00:	30 40 ca d7 	br	#0xd7ca		;

0000da04 <_read_r>:
    da04:	0a 12       	push	r10		;

0000da06 <.LCFI0>:
    da06:	0a 4c       	mov	r12,	r10	;
    da08:	0c 4d       	mov	r13,	r12	;

0000da0a <.LVL1>:
    da0a:	0d 4e       	mov	r14,	r13	;

0000da0c <.LVL2>:
    da0c:	82 43 04 03 	mov	#0,	&0x0304	;r3 As==00

0000da10 <.Loc.58.1>:
    da10:	0e 4f       	mov	r15,	r14	;

0000da12 <.LVL3>:
    da12:	b0 12 ce db 	call	#56270		;#0xdbce

0000da16 <.LVL4>:
    da16:	3c 93       	cmp	#-1,	r12	;r3 As==11
    da18:	06 20       	jnz	$+14     	;abs 0xda26

0000da1a <.Loc.58.1>:
    da1a:	1d 42 04 03 	mov	&0x0304,r13	;0x0304
    da1e:	0d 93       	cmp	#0,	r13	;r3 As==00
    da20:	02 24       	jz	$+6      	;abs 0xda26

0000da22 <.Loc.59.1>:
    da22:	8a 4d 00 00 	mov	r13,	0(r10)	;

0000da26 <.L1>:
    da26:	3a 41       	pop	r10		;

0000da28 <.LVL5>:
    da28:	30 41       	ret			

0000da2a <_wcrtomb_r>:
    da2a:	0a 12       	push	r10		;

0000da2c <.LCFI0>:
    da2c:	09 12       	push	r9		;

0000da2e <.LCFI1>:
    da2e:	08 12       	push	r8		;

0000da30 <.LCFI2>:
    da30:	31 80 14 00 	sub	#20,	r1	;#0x0014

0000da34 <.LCFI3>:
    da34:	0a 4c       	mov	r12,	r10	;
    da36:	19 41 1c 00 	mov	28(r1),	r9	;0x0001c

0000da3a <.LVL1>:
    da3a:	18 42 9e 02 	mov	&0x029e,r8	;0x029e
    da3e:	3c 40 9c d2 	mov	#53916,	r12	;#0xd29c

0000da42 <.LVL2>:
    da42:	0d 93       	cmp	#0,	r13	;r3 As==00
    da44:	17 20       	jnz	$+48     	;abs 0xda74

0000da46 <.Loc.28.1>:
    da46:	8c 12       	call	r12		;

0000da48 <.LVL3>:
    da48:	81 49 02 00 	mov	r9,	2(r1)	;
    da4c:	81 4c 00 00 	mov	r12,	0(r1)	;
    da50:	4e 43       	clr.b	r14		;
    da52:	4f 43       	clr.b	r15		;
    da54:	0d 41       	mov	r1,	r13	;
    da56:	3d 50 0a 00 	add	#10,	r13	;#0x000a

0000da5a <.L6>:
    da5a:	0c 4a       	mov	r10,	r12	;
    da5c:	88 12       	call	r8		;

0000da5e <.LVL4>:
    da5e:	3c 93       	cmp	#-1,	r12	;r3 As==11
    da60:	05 20       	jnz	$+12     	;abs 0xda6c

0000da62 <.Loc.34.1>:
    da62:	89 43 00 00 	mov	#0,	0(r9)	;r3 As==00

0000da66 <.Loc.35.1>:
    da66:	ba 40 8a 00 	mov	#138,	0(r10)	;#0x008a
    da6a:	00 00 

0000da6c <.L1>:
    da6c:	31 50 14 00 	add	#20,	r1	;#0x0014
    da70:	30 40 8a c3 	br	#0xc38a		;

0000da74 <.L2>:
    da74:	81 4d 08 00 	mov	r13,	8(r1)	;
    da78:	81 4e 06 00 	mov	r14,	6(r1)	;
    da7c:	81 4f 04 00 	mov	r15,	4(r1)	;
    da80:	8c 12       	call	r12		;

0000da82 <.LVL6>:
    da82:	81 49 02 00 	mov	r9,	2(r1)	;
    da86:	81 4c 00 00 	mov	r12,	0(r1)	;
    da8a:	1e 41 06 00 	mov	6(r1),	r14	;
    da8e:	1f 41 04 00 	mov	4(r1),	r15	;
    da92:	1d 41 08 00 	mov	8(r1),	r13	;
    da96:	30 40 5a da 	br	#0xda5a		;

0000da9a <__ascii_wctomb>:
    da9a:	0d 93       	cmp	#0,	r13	;r3 As==00
    da9c:	0e 24       	jz	$+30     	;abs 0xdaba

0000da9e <.Loc.47.1>:
    da9e:	7f 40 ff 00 	mov.b	#255,	r15	;#0x00ff
    daa2:	0f 9e       	cmp	r14,	r15	;
    daa4:	05 2c       	jc	$+12     	;abs 0xdab0

0000daa6 <.Loc.50.1>:
    daa6:	bc 40 8a 00 	mov	#138,	0(r12)	;#0x008a
    daaa:	00 00 

0000daac <.Loc.51.1>:
    daac:	3c 43       	mov	#-1,	r12	;r3 As==11

0000daae <.L1>:
    daae:	30 41       	ret			

0000dab0 <.L3>:
    dab0:	cd 4e 00 00 	mov.b	r14,	0(r13)	;

0000dab4 <.Loc.55.1>:
    dab4:	5c 43       	mov.b	#1,	r12	;r3 As==01

0000dab6 <.LVL4>:
    dab6:	30 40 ae da 	br	#0xdaae		;

0000daba <.L4>:
    daba:	0c 4d       	mov	r13,	r12	;

0000dabc <.LVL6>:
    dabc:	30 40 ae da 	br	#0xdaae		;

0000dac0 <_fstat_r>:
    dac0:	0a 12       	push	r10		;

0000dac2 <.LCFI0>:
    dac2:	0a 4c       	mov	r12,	r10	;
    dac4:	0c 4d       	mov	r13,	r12	;

0000dac6 <.LVL1>:
    dac6:	82 43 04 03 	mov	#0,	&0x0304	;r3 As==00

0000daca <.Loc.62.1>:
    daca:	0d 4e       	mov	r14,	r13	;

0000dacc <.LVL2>:
    dacc:	b0 12 dc db 	call	#56284		;#0xdbdc

0000dad0 <.LVL3>:
    dad0:	3c 93       	cmp	#-1,	r12	;r3 As==11
    dad2:	06 20       	jnz	$+14     	;abs 0xdae0

0000dad4 <.Loc.62.1>:
    dad4:	1d 42 04 03 	mov	&0x0304,r13	;0x0304
    dad8:	0d 93       	cmp	#0,	r13	;r3 As==00
    dada:	02 24       	jz	$+6      	;abs 0xdae0

0000dadc <.Loc.63.1>:
    dadc:	8a 4d 00 00 	mov	r13,	0(r10)	;

0000dae0 <.L1>:
    dae0:	3a 41       	pop	r10		;

0000dae2 <.LVL4>:
    dae2:	30 41       	ret			

0000dae4 <_isatty_r>:
    dae4:	0a 12       	push	r10		;

0000dae6 <.LCFI0>:
    dae6:	0a 4c       	mov	r12,	r10	;

0000dae8 <.Loc.57.1>:
    dae8:	82 43 04 03 	mov	#0,	&0x0304	;r3 As==00

0000daec <.Loc.58.1>:
    daec:	0c 4d       	mov	r13,	r12	;

0000daee <.LVL1>:
    daee:	b0 12 b6 db 	call	#56246		;#0xdbb6

0000daf2 <.LVL2>:
    daf2:	3c 93       	cmp	#-1,	r12	;r3 As==11
    daf4:	06 20       	jnz	$+14     	;abs 0xdb02

0000daf6 <.Loc.58.1>:
    daf6:	1d 42 04 03 	mov	&0x0304,r13	;0x0304
    dafa:	0d 93       	cmp	#0,	r13	;r3 As==00
    dafc:	02 24       	jz	$+6      	;abs 0xdb02

0000dafe <.Loc.59.1>:
    dafe:	8a 4d 00 00 	mov	r13,	0(r10)	;

0000db02 <.L1>:
    db02:	3a 41       	pop	r10		;

0000db04 <.LVL3>:
    db04:	30 41       	ret			

0000db06 <udivmodsi4>:
    db06:	0a 12       	push	r10		;

0000db08 <.LCFI0>:
    db08:	09 12       	push	r9		;

0000db0a <.LCFI1>:
    db0a:	08 12       	push	r8		;

0000db0c <.LCFI2>:
    db0c:	07 12       	push	r7		;

0000db0e <.LCFI3>:
    db0e:	06 12       	push	r6		;

0000db10 <.LCFI4>:
    db10:	05 12       	push	r5		;

0000db12 <.LCFI5>:
    db12:	0a 4c       	mov	r12,	r10	;
    db14:	0b 4d       	mov	r13,	r11	;

0000db16 <.LVL1>:
    db16:	7d 40 21 00 	mov.b	#33,	r13	;#0x0021

0000db1a <.Loc.35.1>:
    db1a:	58 43       	mov.b	#1,	r8	;r3 As==01
    db1c:	49 43       	clr.b	r9		;

0000db1e <.Loc.38.1>:
    db1e:	07 4b       	mov	r11,	r7	;

0000db20 <.L2>:
    db20:	0f 9b       	cmp	r11,	r15	;
    db22:	11 28       	jnc	$+36     	;abs 0xdb46
    db24:	07 9f       	cmp	r15,	r7	;
    db26:	02 20       	jnz	$+6      	;abs 0xdb2c
    db28:	0e 9a       	cmp	r10,	r14	;
    db2a:	0d 28       	jnc	$+28     	;abs 0xdb46

0000db2c <.L20>:
    db2c:	4c 43       	clr.b	r12		;

0000db2e <.LVL3>:
    db2e:	0d 4c       	mov	r12,	r13	;

0000db30 <.L5>:
    db30:	07 48       	mov	r8,	r7	;
    db32:	07 d9       	bis	r9,	r7	;
    db34:	07 93       	cmp	#0,	r7	;r3 As==00
    db36:	1a 20       	jnz	$+54     	;abs 0xdb6c

0000db38 <.L6>:
    db38:	81 93 0e 00 	cmp	#0,	14(r1)	;r3 As==00, 0x000e
    db3c:	02 24       	jz	$+6      	;abs 0xdb42
    db3e:	0c 4a       	mov	r10,	r12	;
    db40:	0d 4b       	mov	r11,	r13	;

0000db42 <.L1>:
    db42:	30 40 84 c3 	br	#0xc384		;

0000db46 <.L3>:
    db46:	3d 53       	add	#-1,	r13	;r3 As==11

0000db48 <.Loc.38.1>:
    db48:	0d 93       	cmp	#0,	r13	;r3 As==00
    db4a:	22 24       	jz	$+70     	;abs 0xdb90

0000db4c <.Loc.38.1>:
    db4c:	0f 93       	cmp	#0,	r15	;r3 As==00
    db4e:	ee 3b       	jl	$-34     	;abs 0xdb2c

0000db50 <.Loc.40.1>:
    db50:	05 4e       	mov	r14,	r5	;
    db52:	06 4f       	mov	r15,	r6	;
    db54:	05 5e       	add	r14,	r5	;
    db56:	06 6f       	addc	r15,	r6	;
    db58:	0e 45       	mov	r5,	r14	;

0000db5a <.LVL7>:
    db5a:	0f 46       	mov	r6,	r15	;

0000db5c <.LVL8>:
    db5c:	05 48       	mov	r8,	r5	;
    db5e:	06 49       	mov	r9,	r6	;
    db60:	05 58       	add	r8,	r5	;
    db62:	06 69       	addc	r9,	r6	;
    db64:	08 45       	mov	r5,	r8	;

0000db66 <.LVL9>:
    db66:	09 46       	mov	r6,	r9	;

0000db68 <.LVL10>:
    db68:	30 40 20 db 	br	#0xdb20		;

0000db6c <.L12>:
    db6c:	0b 9f       	cmp	r15,	r11	;
    db6e:	08 28       	jnc	$+18     	;abs 0xdb80
    db70:	0f 9b       	cmp	r11,	r15	;
    db72:	02 20       	jnz	$+6      	;abs 0xdb78
    db74:	0a 9e       	cmp	r14,	r10	;
    db76:	04 28       	jnc	$+10     	;abs 0xdb80

0000db78 <.L16>:
    db78:	0a 8e       	sub	r14,	r10	;
    db7a:	0b 7f       	subc	r15,	r11	;

0000db7c <.Loc.48.1>:
    db7c:	0c d8       	bis	r8,	r12	;

0000db7e <.LVL13>:
    db7e:	0d d9       	bis	r9,	r13	;

0000db80 <.L10>:
    db80:	12 c3       	clrc			
    db82:	09 10       	rrc	r9		;
    db84:	08 10       	rrc	r8		;

0000db86 <.Loc.51.1>:
    db86:	12 c3       	clrc			
    db88:	0f 10       	rrc	r15		;
    db8a:	0e 10       	rrc	r14		;
    db8c:	30 40 30 db 	br	#0xdb30		;

0000db90 <.L14>:
    db90:	0c 4d       	mov	r13,	r12	;

0000db92 <.LVL18>:
    db92:	30 40 38 db 	br	#0xdb38		;

0000db96 <__mspabi_divlu>:
    db96:	21 83       	decd	r1		;

0000db98 <.LCFI19>:
    db98:	81 43 00 00 	mov	#0,	0(r1)	;r3 As==00
    db9c:	b0 12 06 db 	call	#56070		;#0xdb06

0000dba0 <.LVL46>:
    dba0:	21 53       	incd	r1		;
    dba2:	30 41       	ret			

0000dba4 <__mspabi_remul>:
    dba4:	21 83       	decd	r1		;

0000dba6 <.LCFI20>:
    dba6:	91 43 00 00 	mov	#1,	0(r1)	;r3 As==01
    dbaa:	b0 12 06 db 	call	#56070		;#0xdb06

0000dbae <.LVL48>:
    dbae:	21 53       	incd	r1		;
    dbb0:	30 41       	ret			

0000dbb2 <_exit>:
    dbb2:	30 40 b2 db 	br	#0xdbb2		;

0000dbb6 <_isatty>:
    dbb6:	1c 43       	mov	#1,	r12	;r3 As==01

0000dbb8 <.Loc.59.1>:
    dbb8:	30 41       	ret			

0000dbba <getpid>:
    dbba:	3c 40 2a 00 	mov	#42,	r12	;#0x002a

0000dbbe <.Loc.65.1>:
    dbbe:	30 41       	ret			

0000dbc0 <close>:
    dbc0:	b0 12 da dc 	call	#56538		;#0xdcda
    dbc4:	bc 40 58 00 	mov	#88,	0(r12)	;#0x0058
    dbc8:	00 00 
    dbca:	3c 43       	mov	#-1,	r12	;r3 As==11
    dbcc:	30 41       	ret			

0000dbce <read>:
    dbce:	b0 12 da dc 	call	#56538		;#0xdcda
    dbd2:	bc 40 58 00 	mov	#88,	0(r12)	;#0x0058
    dbd6:	00 00 
    dbd8:	3c 43       	mov	#-1,	r12	;r3 As==11
    dbda:	30 41       	ret			

0000dbdc <fstat>:
    dbdc:	b0 12 da dc 	call	#56538		;#0xdcda
    dbe0:	bc 40 58 00 	mov	#88,	0(r12)	;#0x0058
    dbe4:	00 00 
    dbe6:	3c 43       	mov	#-1,	r12	;r3 As==11
    dbe8:	30 41       	ret			

0000dbea <lseek>:
    dbea:	b0 12 da dc 	call	#56538		;#0xdcda
    dbee:	bc 40 58 00 	mov	#88,	0(r12)	;#0x0058
    dbf2:	00 00 
    dbf4:	3c 43       	mov	#-1,	r12	;r3 As==11
    dbf6:	30 41       	ret			

0000dbf8 <kill>:
    dbf8:	b0 12 da dc 	call	#56538		;#0xdcda
    dbfc:	bc 40 58 00 	mov	#88,	0(r12)	;#0x0058
    dc00:	00 00 
    dc02:	3c 43       	mov	#-1,	r12	;r3 As==11
    dc04:	30 41       	ret			

0000dc06 <write>:
    dc06:	0a 12       	push	r10		;

0000dc08 <.LCFI0>:
    dc08:	09 12       	push	r9		;

0000dc0a <.LCFI1>:
    dc0a:	08 12       	push	r8		;

0000dc0c <.LCFI2>:
    dc0c:	07 12       	push	r7		;

0000dc0e <.LCFI3>:
    dc0e:	06 12       	push	r6		;

0000dc10 <.LCFI4>:
    dc10:	05 12       	push	r5		;

0000dc12 <.LCFI5>:
    dc12:	04 12       	push	r4		;

0000dc14 <.LCFI6>:
    dc14:	21 83       	decd	r1		;

0000dc16 <.LCFI7>:
    dc16:	81 4c 00 00 	mov	r12,	0(r1)	;
    dc1a:	08 4d       	mov	r13,	r8	;
    dc1c:	09 4e       	mov	r14,	r9	;

0000dc1e <.LBB5>:
    dc1e:	b0 12 14 c4 	call	#50196		;#0xc414

0000dc22 <.LVL2>:
    dc22:	47 4c       	mov.b	r12,	r7	;

0000dc24 <.LBE5>:
    dc24:	46 43       	clr.b	r6		;

0000dc26 <.LBB10>:
    dc26:	35 40 a2 02 	mov	#674,	r5	;#0x02a2

0000dc2a <.Loc.28.1>:
    dc2a:	04 45       	mov	r5,	r4	;
    dc2c:	34 50 0b 00 	add	#11,	r4	;#0x000b

0000dc30 <.L2>:
    dc30:	4c 43       	clr.b	r12		;
    dc32:	0c 99       	cmp	r9,	r12	;
    dc34:	04 38       	jl	$+10     	;abs 0xdc3e

0000dc36 <.Loc.59.1>:
    dc36:	0c 46       	mov	r6,	r12	;
    dc38:	21 53       	incd	r1		;

0000dc3a <.LVL4>:
    dc3a:	30 40 82 c3 	br	#0xc382		;

0000dc3e <.L4>:
    dc3e:	0a 49       	mov	r9,	r10	;
    dc40:	7c 40 40 00 	mov.b	#64,	r12	;#0x0040
    dc44:	0c 99       	cmp	r9,	r12	;
    dc46:	01 34       	jge	$+4      	;abs 0xdc4a
    dc48:	0a 4c       	mov	r12,	r10	;

0000dc4a <.L3>:
    dc4a:	4c 4a       	mov.b	r10,	r12	;
    dc4c:	c5 4c 00 00 	mov.b	r12,	0(r5)	;

0000dc50 <.Loc.22.1>:
    dc50:	c2 43 a3 02 	mov.b	#0,	&0x02a3	;r3 As==00

0000dc54 <.Loc.23.1>:
    dc54:	f2 40 f3 ff 	mov.b	#65523,	&0x02a4	;#0xfff3
    dc58:	a4 02 

0000dc5a <.Loc.24.1>:
    dc5a:	2d 41       	mov	@r1,	r13	;
    dc5c:	c5 4d 03 00 	mov.b	r13,	3(r5)	;

0000dc60 <.Loc.25.1>:
    dc60:	c5 47 04 00 	mov.b	r7,	4(r5)	;

0000dc64 <.Loc.26.1>:
    dc64:	c5 4c 05 00 	mov.b	r12,	5(r5)	;

0000dc68 <.Loc.27.1>:
    dc68:	c2 43 a8 02 	mov.b	#0,	&0x02a8	;r3 As==00

0000dc6c <.Loc.28.1>:
    dc6c:	0e 4a       	mov	r10,	r14	;
    dc6e:	0d 48       	mov	r8,	r13	;
    dc70:	0c 44       	mov	r4,	r12	;
    dc72:	b0 12 ee d3 	call	#54254		;#0xd3ee

0000dc76 <.LVL7>:
    dc76:	b0 12 b4 dc 	call	#56500		;#0xdcb4

0000dc7a <.LBE11>:
    dc7a:	06 5a       	add	r10,	r6	;

0000dc7c <.Loc.55.1>:
    dc7c:	09 8a       	sub	r10,	r9	;

0000dc7e <.Loc.56.1>:
    dc7e:	08 5a       	add	r10,	r8	;
    dc80:	30 40 30 dc 	br	#0xdc30		;

0000dc84 <_sbrk>:
    dc84:	21 83       	decd	r1		;

0000dc86 <.LCFI0>:
    dc86:	1d 42 a0 02 	mov	&0x02a0,r13	;0x02a0

0000dc8a <.LVL1>:
    dc8a:	4e 43       	clr.b	r14		;
    dc8c:	0e 51       	add	r1,	r14	;
    dc8e:	81 4e 00 00 	mov	r14,	0(r1)	;

0000dc92 <.Loc.22.1>:
    dc92:	0c 5d       	add	r13,	r12	;

0000dc94 <.LVL2>:
    dc94:	01 9c       	cmp	r12,	r1	;
    dc96:	09 2c       	jc	$+20     	;abs 0xdcaa

0000dc98 <.LBB7>:
    dc98:	7e 40 1a 00 	mov.b	#26,	r14	;#0x001a
    dc9c:	3d 40 e1 c0 	mov	#49377,	r13	;#0xc0e1

0000dca0 <.LVL4>:
    dca0:	5c 43       	mov.b	#1,	r12	;r3 As==01
    dca2:	b0 12 06 dc 	call	#56326		;#0xdc06

0000dca6 <.LVL5>:
    dca6:	b0 12 cc dc 	call	#56524		;#0xdccc

0000dcaa <.L2>:
    dcaa:	82 4c a0 02 	mov	r12,	&0x02a0	;

0000dcae <.Loc.31.1>:
    dcae:	0c 4d       	mov	r13,	r12	;
    dcb0:	21 53       	incd	r1		;
    dcb2:	30 41       	ret			

0000dcb4 <C$$IO$$>:
    dcb4:	03 43       	nop			

0000dcb6 <.Loc.33.1>:
    dcb6:	30 41       	ret			

0000dcb8 <__mspabi_mpyi>:
    dcb8:	02 12       	push	r2		;
    dcba:	32 c2       	dint			
    dcbc:	03 43       	nop			
    dcbe:	82 4c 30 01 	mov	r12,	&0x0130	;
    dcc2:	82 4d 38 01 	mov	r13,	&0x0138	;
    dcc6:	1c 42 3a 01 	mov	&0x013a,r12	;0x013a
    dcca:	00 13       	reti			

0000dccc <abort>:
    dccc:	7c 40 06 00 	mov.b	#6,	r12	;
    dcd0:	b0 12 44 dd 	call	#56644		;#0xdd44

0000dcd4 <.LVL0>:
    dcd4:	5c 43       	mov.b	#1,	r12	;r3 As==01
    dcd6:	b0 12 b2 db 	call	#56242		;#0xdbb2

0000dcda <__errno>:
    dcda:	1c 42 02 02 	mov	&0x0202,r12	;0x0202
    dcde:	30 41       	ret			

0000dce0 <_raise_r>:
    dce0:	0a 12       	push	r10		;

0000dce2 <.LCFI4>:
    dce2:	09 12       	push	r9		;

0000dce4 <.LCFI5>:
    dce4:	09 4c       	mov	r12,	r9	;
    dce6:	0a 4d       	mov	r13,	r10	;

0000dce8 <.Loc.151.1>:
    dce8:	7c 40 1f 00 	mov.b	#31,	r12	;#0x001f

0000dcec <.LVL15>:
    dcec:	0c 9d       	cmp	r13,	r12	;
    dcee:	06 2c       	jc	$+14     	;abs 0xdcfc

0000dcf0 <.Loc.153.1>:
    dcf0:	b9 40 16 00 	mov	#22,	0(r9)	;#0x0016
    dcf4:	00 00 

0000dcf6 <.Loc.154.1>:
    dcf6:	3c 43       	mov	#-1,	r12	;r3 As==11

0000dcf8 <.L17>:
    dcf8:	30 40 8c c3 	br	#0xc38c		;

0000dcfc <.L18>:
    dcfc:	1c 49 22 00 	mov	34(r9),	r12	;0x00022
    dd00:	0c 93       	cmp	#0,	r12	;r3 As==00
    dd02:	05 24       	jz	$+12     	;abs 0xdd0e

0000dd04 <.Loc.160.1>:
    dd04:	0d 5d       	rla	r13		;
    dd06:	0c 5d       	add	r13,	r12	;
    dd08:	2d 4c       	mov	@r12,	r13	;

0000dd0a <.LVL17>:
    dd0a:	0d 93       	cmp	#0,	r13	;r3 As==00
    dd0c:	0a 20       	jnz	$+22     	;abs 0xdd22

0000dd0e <.L20>:
    dd0e:	0c 49       	mov	r9,	r12	;
    dd10:	b0 12 74 dd 	call	#56692		;#0xdd74

0000dd14 <.LVL19>:
    dd14:	0e 4a       	mov	r10,	r14	;
    dd16:	0d 4c       	mov	r12,	r13	;
    dd18:	0c 49       	mov	r9,	r12	;
    dd1a:	b0 12 50 dd 	call	#56656		;#0xdd50

0000dd1e <.LVL20>:
    dd1e:	30 40 f8 dc 	br	#0xdcf8		;

0000dd22 <.L21>:
    dd22:	1d 93       	cmp	#1,	r13	;r3 As==01
    dd24:	0c 24       	jz	$+26     	;abs 0xdd3e

0000dd26 <.Loc.166.1>:
    dd26:	3d 93       	cmp	#-1,	r13	;r3 As==11
    dd28:	06 20       	jnz	$+14     	;abs 0xdd36

0000dd2a <.Loc.168.1>:
    dd2a:	b9 40 16 00 	mov	#22,	0(r9)	;#0x0016
    dd2e:	00 00 

0000dd30 <.Loc.169.1>:
    dd30:	5c 43       	mov.b	#1,	r12	;r3 As==01
    dd32:	30 40 f8 dc 	br	#0xdcf8		;

0000dd36 <.L22>:
    dd36:	8c 43 00 00 	mov	#0,	0(r12)	;r3 As==00

0000dd3a <.Loc.174.1>:
    dd3a:	0c 4a       	mov	r10,	r12	;
    dd3c:	8d 12       	call	r13		;

0000dd3e <.L23>:
    dd3e:	4c 43       	clr.b	r12		;
    dd40:	30 40 f8 dc 	br	#0xdcf8		;

0000dd44 <raise>:
    dd44:	0d 4c       	mov	r12,	r13	;
    dd46:	1c 42 02 02 	mov	&0x0202,r12	;0x0202

0000dd4a <.LVL33>:
    dd4a:	b0 12 e0 dc 	call	#56544		;#0xdce0

0000dd4e <.LVL34>:
    dd4e:	30 41       	ret			

0000dd50 <_kill_r>:
    dd50:	0a 12       	push	r10		;

0000dd52 <.LCFI0>:
    dd52:	0a 4c       	mov	r12,	r10	;
    dd54:	0c 4d       	mov	r13,	r12	;

0000dd56 <.LVL1>:
    dd56:	82 43 04 03 	mov	#0,	&0x0304	;r3 As==00

0000dd5a <.Loc.61.1>:
    dd5a:	0d 4e       	mov	r14,	r13	;

0000dd5c <.LVL2>:
    dd5c:	b0 12 f8 db 	call	#56312		;#0xdbf8

0000dd60 <.LVL3>:
    dd60:	3c 93       	cmp	#-1,	r12	;r3 As==11
    dd62:	06 20       	jnz	$+14     	;abs 0xdd70

0000dd64 <.Loc.61.1>:
    dd64:	1d 42 04 03 	mov	&0x0304,r13	;0x0304
    dd68:	0d 93       	cmp	#0,	r13	;r3 As==00
    dd6a:	02 24       	jz	$+6      	;abs 0xdd70

0000dd6c <.Loc.62.1>:
    dd6c:	8a 4d 00 00 	mov	r13,	0(r10)	;

0000dd70 <.L1>:
    dd70:	3a 41       	pop	r10		;

0000dd72 <.LVL4>:
    dd72:	30 41       	ret			

0000dd74 <_getpid_r>:
    dd74:	b0 12 ba db 	call	#56250		;#0xdbba

0000dd78 <.LVL6>:
    dd78:	30 41       	ret			

0000dd7a <__do_global_ctors_aux>:
    dd7a:	0a 12       	push	r10		;
    dd7c:	3a 40 70 c1 	mov	#49520,	r10	;#0xc170

0000dd80 <.L2>:
    dd80:	2c 4a       	mov	@r10,	r12	;
    dd82:	3c 93       	cmp	#-1,	r12	;r3 As==11
    dd84:	02 20       	jnz	$+6      	;abs 0xdd8a
    dd86:	3a 41       	pop	r10		;
    dd88:	30 41       	ret			

0000dd8a <.L3>:
    dd8a:	8c 12       	call	r12		;
    dd8c:	3a 50 fe ff 	add	#65534,	r10	;#0xfffe
    dd90:	30 40 80 dd 	br	#0xdd80		;

0000dd94 <__msp430_init>:
    dd94:	b0 12 82 c2 	call	#49794		;#0xc282
    dd98:	b0 12 7a dd 	call	#56698		;#0xdd7a

0000dd9c <L0>:
    dd9c:	b0 12 ba c1 	call	#49594		;#0xc1ba

0000dda0 <.Loc.19.1>:
    dda0:	b0 12 ac c1 	call	#49580		;#0xc1ac

0000dda4 <.Loc.20.1>:
    dda4:	30 41       	ret			

0000dda6 <__msp430_fini>:
    dda6:	b0 12 c8 c1 	call	#49608		;#0xc1c8

0000ddaa <L0>:
    ddaa:	b0 12 34 c2 	call	#49716		;#0xc234

0000ddae <L0>:
    ddae:	30 41       	ret			

Disassembly of section .data:

00000200 <__datastart>:
	...

00000202 <_impure_ptr>:
 202:	04 02       	mova	@r2,	r4	;

00000204 <impure_data>:
 204:	00 00       	beq			
 206:	98 c0 86 c0 	bic	0xc086,	-16268(r8);PC rel. 0xc28e, 0xc074
 20a:	74 c0 
	...
 214:	ac c0 00 00 	bic	@r0,	0(r12)	;
	...

0000027c <lc_ctype_charset>:
 27c:	41 53       	add.b	#0,	r1	;r3 As==00
 27e:	43 49       	.word	0x4943;	????
 280:	49 00       	rrcm.a	#1,	r9	;
	...

0000029c <__mb_cur_max>:
 29c:	01 00       	mova	@r0,	r1	;

0000029e <__wctomb>:
 29e:	9a da 06 03 	bis	774(r10),0(r10)	;0x00306
 2a2:	00 00 

000002a0 <heap.1381>:
 2a0:	06 03       	mova	@r3,	r6	;

000002a2 <_CIOBUF_>:
	...

Disassembly of section .bss:

000002ee <__bssstart>:
	...

000002f0 <dtor_idx.3096>:
	...

000002f2 <object.3109>:
	...

00000300 <__malloc_sbrk_start>:
	...

00000302 <__malloc_free_list>:
	...

00000304 <errno>:
	...

Disassembly of section .heap:

00000306 <__heap_start__>:
 306:	00 00       	beq			
	...

Disassembly of section .MSP430.attributes:

00000000 <__stack-0x400>:
   0:	41 16       	popm.a	#5,	r5	;20-bit words
   2:	00 00       	beq			
   4:	00 6d       	addc	r13,	r0	;
   6:	73 70       	.word	0x7073;	????
   8:	61 62       	addc.b	#4,	r1	;r2 As==10
   a:	69 00 01 0b 	mova	r0,	&592641	; 0x90b01
   e:	00 00       	beq			
  10:	00 04       	bra	@r4		;
  12:	01 06       	mova	@r6,	r1	;
  14:	01 08       	mova	@r8,	r1	;
  16:	01 00       	Address 0x0000000000000016 is out of bounds.
.word	0xffff;	????

Disassembly of section .comment:

00000000 <.comment>:
   0:	47 43       	clr.b	r7		;
   2:	43 3a       	jl	$-888    	;abs 0xfffffffffffffc8a
   4:	20 28       	jnc	$+66     	;abs 0x46
   6:	53 4f       	.word	0x4f53;	????
   8:	4d 4e       	mov.b	r14,	r13	;
   a:	49 55       	add.b	r5,	r9	;
   c:	4d 20       	jnz	$+156    	;abs 0xa8
   e:	54 65 63 68 	addc.b	26723(r5),r4	;0x06863
  12:	6e 6f       	addc.b	@r15,	r14	;
  14:	6c 6f       	addc.b	@r15,	r12	;
  16:	67 69       	addc.b	@r9,	r7	;
  18:	65 73       	subc.b	#2,	r5	;r3 As==10
  1a:	20 4c       	br	@r12		;
  1c:	69 6d       	addc.b	@r13,	r9	;
  1e:	69 74       	subc.b	@r4,	r9	;
  20:	65 64       	addc.b	@r4,	r5	;
  22:	20 2d       	jc	$+578    	;abs 0x264
  24:	20 6d       	addc	@r13,	r0	;
  26:	73 70       	.word	0x7073;	????
  28:	34 33       	jn	$-406    	;abs 0xfffffffffffffe92
  2a:	30 2d       	jc	$+610    	;abs 0x28c
  2c:	67 63       	addc.b	#2,	r7	;r3 As==10
  2e:	63 20       	jnz	$+200    	;abs 0xf6
  30:	36 2e       	jc	$-914    	;abs 0xfffffffffffffc9e
  32:	34 2e       	jc	$-918    	;abs 0xfffffffffffffc9c
  34:	30 2e       	jc	$-926    	;abs 0xfffffffffffffc96
  36:	33 32       	jn	$-920    	;abs 0xfffffffffffffc9e
  38:	29 20       	jnz	$+84     	;abs 0x8c
  3a:	36 2e       	jc	$-914    	;abs 0xfffffffffffffca8
  3c:	34 2e       	jc	$-918    	;abs 0xfffffffffffffca6
  3e:	30 00 00 00 	Address 0x0000000000000040 is out of bounds.
bra	-1(r0)		;PC rel. 0x0003f
